	.section	__TEXT,__text,regular,pure_instructions
	.build_version macos, 11, 0
	.p2align	2
__ZN103_$LT$alloc..vec..into_iter..IntoIter$LT$T$C$A$GT$$u20$as$u20$core..iter..traits..iterator..Iterator$GT$4next17hca21c3acb9bf23f6E:
Lfunc_begin0:
	.file	1 "/rustc/fe5b13d681f25ee6474be29d748c65adcd91f69e/library/alloc/src/vec/into_iter.rs"
	.loc	1 143 0
	.cfi_startproc
	sub	sp, sp, #128
	stp	x29, x30, [sp, #112]
	add	x29, sp, #112
	.cfi_def_cfa w29, 16
	.cfi_offset w30, -8
	.cfi_offset w29, -16
	str	x0, [sp, #40]
	mov	x8, x0
	str	x8, [sp, #56]
Ltmp0:
	.loc	1 144 12 prologue_end
	ldr	x8, [x0, #16]
	.loc	1 144 36 is_stmt 0
	ldr	x9, [x0, #24]
	.loc	1 144 12
	subs	x8, x8, x9
	b.eq	LBB0_2
	b	LBB0_1
LBB0_1:
	.loc	1 146 19 is_stmt 1
	b	LBB0_4
LBB0_2:
	.loc	1 145 13
	str	wzr, [sp, #48]
	.loc	1 144 9
	b	LBB0_3
LBB0_3:
	.loc	1 160 6
	ldr	w0, [sp, #48]
	ldr	w1, [sp, #52]
	ldp	x29, x30, [sp, #112]
	add	sp, sp, #128
	ret
LBB0_4:
	.loc	1 0 6 is_stmt 0
	mov	w8, #4
	.loc	1 146 19 is_stmt 1
	cbnz	x8, LBB0_6
	b	LBB0_5
LBB0_5:
	.loc	1 0 19 is_stmt 0
	ldr	x8, [sp, #40]
	.loc	1 150 46 is_stmt 1
	ldr	x8, [x8, #16]
	.loc	1 150 33 is_stmt 0
	add	x8, x8, #1
	stur	x8, [x29, #-40]
	ldur	x8, [x29, #-40]
	str	x8, [sp, #32]
	b	LBB0_10
LBB0_6:
	.loc	1 0 33
	ldr	x8, [sp, #40]
	.loc	1 155 23 is_stmt 1
	ldr	x9, [x8, #16]
	str	x9, [sp, #16]
	stur	x9, [x29, #-48]
Ltmp1:
	.loc	1 156 33
	ldr	x8, [x8, #16]
	stur	x8, [x29, #-24]
	mov	w9, #1
	stur	x9, [x29, #-16]
Ltmp2:
	.file	2 "/rustc/fe5b13d681f25ee6474be29d748c65adcd91f69e/library/core/src/ptr/const_ptr.rs"
	.loc	2 412 18
	add	x8, x8, #4
	stur	x8, [x29, #-8]
	ldur	x8, [x29, #-8]
	str	x8, [sp, #24]
Ltmp3:
	.loc	1 156 33
	b	LBB0_7
LBB0_7:
	.loc	1 0 33 is_stmt 0
	ldr	x0, [sp, #16]
	ldr	x8, [sp, #24]
	ldr	x9, [sp, #40]
	.loc	1 156 13
	str	x8, [x9, #16]
	.loc	1 158 27 is_stmt 1
	bl	__ZN4core3ptr4read17h10bb51335b2f53f2E
	str	w0, [sp, #12]
	b	LBB0_8
LBB0_8:
	.loc	1 0 27 is_stmt 0
	ldr	w8, [sp, #12]
	.loc	1 158 13
	str	w8, [sp, #52]
	mov	w8, #1
	str	w8, [sp, #48]
Ltmp4:
	.loc	1 146 16 is_stmt 1
	b	LBB0_9
LBB0_9:
	.loc	1 144 9
	b	LBB0_3
LBB0_10:
	.loc	1 0 9 is_stmt 0
	ldr	x8, [sp, #32]
	ldr	x9, [sp, #40]
	.loc	1 150 13 is_stmt 1
	str	x8, [x9, #16]
Ltmp5:
	.file	3 "/rustc/fe5b13d681f25ee6474be29d748c65adcd91f69e/library/core/src/mem/mod.rs"
	.loc	3 643 9
	bl	__ZN4core3mem12maybe_uninit20MaybeUninit$LT$T$GT$6zeroed17h3b54f8a442b6b5f6E
	str	w0, [sp, #8]
	stur	w0, [x29, #-32]
	stur	w0, [x29, #-28]
Ltmp6:
	.loc	1 153 27
	b	LBB0_11
LBB0_11:
	.loc	1 0 27 is_stmt 0
	ldr	w8, [sp, #8]
	.loc	1 153 13
	str	w8, [sp, #52]
	mov	w8, #1
	str	w8, [sp, #48]
	.loc	1 146 16 is_stmt 1
	b	LBB0_9
Ltmp7:
Lfunc_end0:
	.cfi_endproc

	.p2align	2
__ZN103_$LT$alloc..vec..into_iter..IntoIter$LT$T$C$A$GT$$u20$as$u20$core..iter..traits..iterator..Iterator$GT$9size_hint17h3c4597cc2a4a1e6fE:
Lfunc_begin1:
	.loc	1 163 0
	.cfi_startproc
	sub	sp, sp, #112
	stp	x29, x30, [sp, #96]
	add	x29, sp, #96
	.cfi_def_cfa w29, 16
	.cfi_offset w30, -8
	.cfi_offset w29, -16
	str	x8, [sp, #32]
	str	x0, [sp, #40]
	stur	x0, [x29, #-24]
Ltmp8:
	.loc	1 164 24 prologue_end
	b	LBB1_1
LBB1_1:
	.loc	1 0 24 is_stmt 0
	mov	w8, #4
	.loc	1 164 24
	cbnz	x8, LBB1_3
	b	LBB1_2
LBB1_2:
	.loc	1 0 24
	ldr	x8, [sp, #40]
	.loc	1 165 13 is_stmt 1
	ldr	x0, [x8, #24]
	bl	__ZN4core3ptr9const_ptr33_$LT$impl$u20$$BP$const$u20$T$GT$4addr17h825229548f8cb5cdE
	str	x0, [sp, #24]
	b	LBB1_6
LBB1_3:
	.loc	1 0 13 is_stmt 0
	ldr	x8, [sp, #40]
	.loc	1 167 22 is_stmt 1
	ldr	x0, [x8, #24]
	.loc	1 167 43 is_stmt 0
	ldr	x1, [x8, #16]
	.loc	1 167 22
	bl	__ZN4core3ptr9const_ptr33_$LT$impl$u20$$BP$const$u20$T$GT$11offset_from17h2fa9bc72937b6f88E
	str	x0, [sp, #16]
	b	LBB1_4
LBB1_4:
	.loc	1 0 22
	ldr	x8, [sp, #16]
	.loc	1 167 22
	str	x8, [sp, #48]
	.loc	1 164 21 is_stmt 1
	b	LBB1_5
LBB1_5:
	.loc	1 0 21 is_stmt 0
	ldr	x9, [sp, #32]
Ltmp9:
	.loc	1 169 10 is_stmt 1
	ldr	x8, [sp, #48]
	.loc	1 169 22 is_stmt 0
	ldr	x10, [sp, #48]
	.loc	1 169 17
	stur	x10, [x29, #-32]
	mov	w10, #1
	stur	x10, [x29, #-40]
	.loc	1 169 9
	str	x8, [x9]
	ldur	x10, [x29, #-40]
	ldur	x8, [x29, #-32]
	str	x10, [x9, #8]
	str	x8, [x9, #16]
Ltmp10:
	.loc	1 170 6 is_stmt 1
	ldp	x29, x30, [sp, #96]
	add	sp, sp, #112
	ret
LBB1_6:
	.loc	1 0 6 is_stmt 0
	ldr	x8, [sp, #40]
	.loc	1 165 42 is_stmt 1
	ldr	x0, [x8, #16]
	bl	__ZN4core3ptr9const_ptr33_$LT$impl$u20$$BP$const$u20$T$GT$4addr17h825229548f8cb5cdE
	str	x0, [sp, #8]
	b	LBB1_7
LBB1_7:
	.loc	1 0 42 is_stmt 0
	ldr	x8, [sp, #24]
	ldr	x9, [sp, #8]
	stur	x8, [x29, #-16]
	stur	x9, [x29, #-8]
Ltmp11:
	.file	4 "/rustc/fe5b13d681f25ee6474be29d748c65adcd91f69e/library/core/src/num/uint_macros.rs"
	.loc	4 1226 13 is_stmt 1
	subs	x8, x8, x9
Ltmp12:
	.loc	1 165 13
	str	x8, [sp, #48]
	b	LBB1_8
LBB1_8:
	.loc	1 164 21
	b	LBB1_5
Ltmp13:
Lfunc_end1:
	.cfi_endproc

	.p2align	2
__ZN119_$LT$core..ptr..non_null..NonNull$LT$T$GT$$u20$as$u20$core..convert..From$LT$core..ptr..unique..Unique$LT$T$GT$$GT$$GT$4from17h1a09c78b87d93efbE:
Lfunc_begin2:
	.file	5 "/rustc/fe5b13d681f25ee6474be29d748c65adcd91f69e/library/core/src/ptr/non_null.rs"
	.loc	5 764 0
	.cfi_startproc
	sub	sp, sp, #48
	stp	x29, x30, [sp, #32]
	add	x29, sp, #32
	.cfi_def_cfa w29, 16
	.cfi_offset w30, -8
	.cfi_offset w29, -16
	mov	x8, x0
	stur	x8, [x29, #-8]
Ltmp14:
	.loc	5 767 41 prologue_end
	bl	__ZN4core3ptr6unique15Unique$LT$T$GT$6as_ptr17h4ba4e895ef0d60f0E
	str	x0, [sp, #16]
	b	LBB2_1
LBB2_1:
	.loc	5 0 41 is_stmt 0
	ldr	x0, [sp, #16]
	.loc	5 767 18
	bl	__ZN4core3ptr8non_null16NonNull$LT$T$GT$13new_unchecked17h795ac2cfc6825a06E
	str	x0, [sp, #8]
	b	LBB2_2
LBB2_2:
	.loc	5 0 18
	ldr	x0, [sp, #8]
	.loc	5 768 6 is_stmt 1
	ldp	x29, x30, [sp, #32]
	add	sp, sp, #48
	ret
Ltmp15:
Lfunc_end2:
	.cfi_endproc

	.p2align	2
__ZN153_$LT$core..result..Result$LT$T$C$F$GT$$u20$as$u20$core..ops..try_trait..FromResidual$LT$core..result..Result$LT$core..convert..Infallible$C$E$GT$$GT$$GT$13from_residual17h2a77273445cf6285E:
Lfunc_begin3:
	.file	6 "/rustc/fe5b13d681f25ee6474be29d748c65adcd91f69e/library/core/src/result.rs"
	.loc	6 2104 0
	.cfi_startproc
	sub	sp, sp, #48
	stp	x29, x30, [sp, #32]
	add	x29, sp, #32
	.cfi_def_cfa w29, 16
	.cfi_offset w30, -8
	.cfi_offset w29, -16
Ltmp16:
	.loc	6 2106 27 prologue_end
	bl	__ZN50_$LT$T$u20$as$u20$core..convert..From$LT$T$GT$$GT$4from17h52e4b4ec9b4d5bddE
	b	LBB3_1
LBB3_1:
	.loc	6 2106 23 is_stmt 0
	str	xzr, [sp, #8]
	str	xzr, [sp, #16]
	str	xzr, [sp, #8]
Ltmp17:
	.loc	6 2108 6 is_stmt 1
	ldr	x0, [sp, #8]
	ldr	x1, [sp, #16]
	ldp	x29, x30, [sp, #32]
	add	sp, sp, #48
	ret
Ltmp18:
Lfunc_end3:
	.cfi_endproc

	.p2align	2
__ZN153_$LT$core..result..Result$LT$T$C$F$GT$$u20$as$u20$core..ops..try_trait..FromResidual$LT$core..result..Result$LT$core..convert..Infallible$C$E$GT$$GT$$GT$13from_residual17h63d9fc174dab68f1E:
Lfunc_begin4:
	.loc	6 2104 0
	.cfi_startproc
	sub	sp, sp, #48
	stp	x29, x30, [sp, #32]
	add	x29, sp, #32
	.cfi_def_cfa w29, 16
	.cfi_offset w30, -8
	.cfi_offset w29, -16
Ltmp19:
	.loc	6 2106 27 prologue_end
	bl	__ZN50_$LT$T$u20$as$u20$core..convert..From$LT$T$GT$$GT$4from17hef0d6f25ae635eaeE
	b	LBB4_1
LBB4_1:
	.loc	6 2106 23 is_stmt 0
	str	xzr, [sp, #8]
	str	xzr, [sp, #16]
	str	xzr, [sp, #16]
Ltmp20:
	.loc	6 2108 6 is_stmt 1
	ldr	x0, [sp, #8]
	ldr	x1, [sp, #16]
	ldp	x29, x30, [sp, #32]
	add	sp, sp, #48
	ret
Ltmp21:
Lfunc_end4:
	.cfi_endproc

	.p2align	2
__ZN157_$LT$$LT$alloc..vec..into_iter..IntoIter$LT$T$C$A$GT$$u20$as$u20$core..ops..drop..Drop$GT$..drop..DropGuard$LT$T$C$A$GT$$u20$as$u20$core..ops..drop..Drop$GT$4drop17h2989f3b09bbc03d2E:
Lfunc_begin5:
	.loc	1 315 0
	.cfi_startproc
	.cfi_personality 155, _rust_eh_personality
	.cfi_lsda 16, Lexception0
	sub	sp, sp, #112
	stp	x29, x30, [sp, #96]
	add	x29, sp, #96
	.cfi_def_cfa w29, 16
	.cfi_offset w30, -8
	.cfi_offset w29, -16
	str	x0, [sp, #32]
	mov	x8, x0
	stur	x8, [x29, #-32]
Ltmp29:
	.loc	1 318 25 prologue_end
	sturb	wzr, [x29, #-33]
	.loc	1 318 52 is_stmt 0
	ldr	x0, [x0]
	mov	w8, #1
	.loc	1 318 33
	sturb	w8, [x29, #-33]
	bl	__ZN4core3mem13manually_drop21ManuallyDrop$LT$T$GT$4take17h9c602fef5e97294fE
	b	LBB5_1
LBB5_1:
	.loc	1 0 33
	ldr	x8, [sp, #32]
Ltmp30:
	.loc	1 320 55 is_stmt 1
	ldr	x8, [x8]
	ldr	x0, [x8]
Ltmp22:
	bl	__ZN4core3ptr8non_null16NonNull$LT$T$GT$6as_ptr17h45cf7d5b7c31af35E
	str	x0, [sp, #24]
Ltmp23:
	b	LBB5_4
Ltmp31:
LBB5_2:
	.loc	1 321 17
	ldurb	w8, [x29, #-33]
	tbnz	w8, #0, LBB5_8
	b	LBB5_7
LBB5_3:
Ltmp28:
	.loc	1 0 17 is_stmt 0
	mov	x8, x1
	stur	x0, [x29, #-16]
	stur	w8, [x29, #-8]
	b	LBB5_2
LBB5_4:
	ldr	x0, [sp, #24]
	ldr	x8, [sp, #32]
Ltmp32:
	.loc	1 320 76 is_stmt 1
	ldr	x8, [x8]
	ldr	x1, [x8, #8]
	.loc	1 320 88 is_stmt 0
	sturb	wzr, [x29, #-33]
Ltmp24:
	.loc	1 320 29
	bl	__ZN5alloc7raw_vec19RawVec$LT$T$C$A$GT$17from_raw_parts_in17h1eeb02e86b7d6d43E
	str	x0, [sp, #8]
	str	x1, [sp, #16]
Ltmp25:
	b	LBB5_5
LBB5_5:
	.loc	1 0 29
	ldr	x8, [sp, #16]
	ldr	x9, [sp, #8]
	add	x0, sp, #40
	.loc	1 320 29
	str	x9, [sp, #40]
	str	x8, [sp, #48]
Ltmp26:
	.loc	1 320 94
	bl	__ZN4core3ptr54drop_in_place$LT$alloc..raw_vec..RawVec$LT$i32$GT$$GT$17h6a2b501fa7b69bf9E
Ltmp27:
	b	LBB5_6
Ltmp33:
LBB5_6:
	.loc	1 321 17 is_stmt 1
	sturb	wzr, [x29, #-33]
	.loc	1 322 14
	ldp	x29, x30, [sp, #96]
	add	sp, sp, #112
	ret
LBB5_7:
	.loc	1 315 13
	ldur	x0, [x29, #-16]
	bl	__Unwind_Resume
LBB5_8:
	.loc	1 321 17
	b	LBB5_7
Ltmp34:
Lfunc_end5:
	.cfi_endproc
	.section	__TEXT,__gcc_except_tab
	.p2align	2
GCC_except_table5:
Lexception0:
	.byte	255
	.byte	255
	.byte	1
	.uleb128 Lcst_end0-Lcst_begin0
Lcst_begin0:
	.uleb128 Lfunc_begin5-Lfunc_begin5
	.uleb128 Ltmp22-Lfunc_begin5
	.byte	0
	.byte	0
	.uleb128 Ltmp22-Lfunc_begin5
	.uleb128 Ltmp27-Ltmp22
	.uleb128 Ltmp28-Lfunc_begin5
	.byte	0
	.uleb128 Ltmp27-Lfunc_begin5
	.uleb128 Lfunc_end5-Ltmp27
	.byte	0
	.byte	0
Lcst_end0:
	.p2align	2

	.section	__TEXT,__text,regular,pure_instructions
	.p2align	2
__ZN3std10sys_common9backtrace28__rust_begin_short_backtrace17hc5a97354d18edec0E:
Lfunc_begin6:
	.file	7 "/rustc/fe5b13d681f25ee6474be29d748c65adcd91f69e/library/std/src/sys_common/backtrace.rs"
	.loc	7 118 0
	.cfi_startproc
	.cfi_personality 155, _rust_eh_personality
	.cfi_lsda 16, Lexception1
	sub	sp, sp, #48
	stp	x29, x30, [sp, #32]
	add	x29, sp, #32
	.cfi_def_cfa w29, 16
	.cfi_offset w30, -8
	.cfi_offset w29, -16
	mov	x8, x0
	str	x8, [sp, #8]
Ltmp38:
	.loc	7 122 18 prologue_end
	bl	__ZN4core3ops8function6FnOnce9call_once17hb91d6b041552521dE
	b	LBB6_1
LBB6_1:
Ltmp35:
Ltmp39:
	.loc	7 125 5
	bl	__ZN4core4hint9black_box17h9e10a1dfef701c76E
Ltmp36:
	b	LBB6_4
Ltmp40:
LBB6_2:
	.loc	7 128 1
	b	LBB6_5
LBB6_3:
Ltmp37:
	.loc	7 0 1 is_stmt 0
	mov	x8, x1
	str	x0, [sp, #16]
	str	w8, [sp, #24]
	b	LBB6_2
LBB6_4:
	.loc	7 128 2
	ldp	x29, x30, [sp, #32]
	add	sp, sp, #48
	ret
LBB6_5:
	.loc	7 118 1 is_stmt 1
	ldr	x0, [sp, #16]
	bl	__Unwind_Resume
Ltmp41:
Lfunc_end6:
	.cfi_endproc
	.section	__TEXT,__gcc_except_tab
	.p2align	2
GCC_except_table6:
Lexception1:
	.byte	255
	.byte	255
	.byte	1
	.uleb128 Lcst_end1-Lcst_begin1
Lcst_begin1:
	.uleb128 Lfunc_begin6-Lfunc_begin6
	.uleb128 Ltmp35-Lfunc_begin6
	.byte	0
	.byte	0
	.uleb128 Ltmp35-Lfunc_begin6
	.uleb128 Ltmp36-Ltmp35
	.uleb128 Ltmp37-Lfunc_begin6
	.byte	0
	.uleb128 Ltmp36-Lfunc_begin6
	.uleb128 Lfunc_end6-Ltmp36
	.byte	0
	.byte	0
Lcst_end1:
	.p2align	2

	.section	__TEXT,__text,regular,pure_instructions
	.private_extern	__ZN3std2rt10lang_start17h8252c41076ae8659E
	.globl	__ZN3std2rt10lang_start17h8252c41076ae8659E
	.p2align	2
__ZN3std2rt10lang_start17h8252c41076ae8659E:
Lfunc_begin7:
	.file	8 "/rustc/fe5b13d681f25ee6474be29d748c65adcd91f69e/library/std/src/rt.rs"
	.loc	8 139 0
	.cfi_startproc
	sub	sp, sp, #80
	stp	x29, x30, [sp, #64]
	add	x29, sp, #64
	.cfi_def_cfa w29, 16
	.cfi_offset w30, -8
	.cfi_offset w29, -16
	mov	x8, x0
	str	x1, [sp, #8]
	mov	x3, x2
	ldr	x2, [sp, #8]
	mov	x0, x8
	str	x0, [sp, #32]
	stur	x2, [x29, #-24]
	mov	x9, x3
	stur	x9, [x29, #-16]
	add	x0, sp, #24
Ltmp42:
	.loc	8 145 10 prologue_end
	str	x8, [sp, #24]
	.loc	8 0 0 is_stmt 0
	adrp	x1, l___unnamed_1@PAGE
	add	x1, x1, l___unnamed_1@PAGEOFF
	.loc	8 144 17 is_stmt 1
	bl	__ZN3std2rt19lang_start_internal17hc453db0ee48af82eE
	str	x0, [sp, #16]
	b	LBB7_1
LBB7_1:
	.loc	8 144 12 is_stmt 0
	ldr	x0, [sp, #16]
	stur	x0, [x29, #-8]
	.loc	8 150 2 is_stmt 1
	ldp	x29, x30, [sp, #64]
	add	sp, sp, #80
	ret
Ltmp43:
Lfunc_end7:
	.cfi_endproc

	.p2align	2
__ZN3std2rt10lang_start28_$u7b$$u7b$closure$u7d$$u7d$17hf8d61c53a03450ebE:
Lfunc_begin8:
	.loc	8 145 0
	.cfi_startproc
	sub	sp, sp, #32
	stp	x29, x30, [sp, #16]
	add	x29, sp, #16
	.cfi_def_cfa w29, 16
	.cfi_offset w30, -8
	.cfi_offset w29, -16
	mov	x8, x0
	str	x8, [sp, #8]
Ltmp44:
	.loc	8 145 77 prologue_end
	ldr	x0, [x0]
	.loc	8 145 18 is_stmt 0
	bl	__ZN3std10sys_common9backtrace28__rust_begin_short_backtrace17hc5a97354d18edec0E
	b	LBB8_1
LBB8_1:
	bl	__ZN54_$LT$$LP$$RP$$u20$as$u20$std..process..Termination$GT$6report17h6b11e07ed6952585E
	str	w0, [sp, #4]
	b	LBB8_2
LBB8_2:
	.loc	8 0 18
	ldr	w0, [sp, #4]
	.loc	8 145 18
	bl	__ZN3std7process8ExitCode6to_i3217h9dbfdbf7d9ba9e8cE
	str	w0, [sp]
	b	LBB8_3
LBB8_3:
	.loc	8 0 18
	ldr	w0, [sp]
	.loc	8 145 100
	ldp	x29, x30, [sp, #16]
	add	sp, sp, #32
	ret
Ltmp45:
Lfunc_end8:
	.cfi_endproc

	.p2align	2
__ZN3std3sys4unix7process14process_common8ExitCode6as_i3217h9d071fb0572aac9bE:
Lfunc_begin9:
	.file	9 "/rustc/fe5b13d681f25ee6474be29d748c65adcd91f69e/library/std/src/sys/unix/process/process_common.rs"
	.loc	9 484 0 is_stmt 1
	.cfi_startproc
	sub	sp, sp, #16
	.cfi_def_cfa_offset 16
	mov	x8, x0
	str	x8, [sp, #8]
Ltmp47:
	.loc	9 485 9 prologue_end
	ldrb	w0, [x0]
	.loc	9 486 6
	add	sp, sp, #16
	ret
Ltmp48:
Lfunc_end9:
	.cfi_endproc

	.p2align	2
__ZN3std7process8ExitCode6to_i3217h9dbfdbf7d9ba9e8cE:
Lfunc_begin10:
	.file	10 "/rustc/fe5b13d681f25ee6474be29d748c65adcd91f69e/library/std/src/process.rs"
	.loc	10 1745 0
	.cfi_startproc
	sub	sp, sp, #32
	stp	x29, x30, [sp, #16]
	add	x29, sp, #16
	.cfi_def_cfa w29, 16
	.cfi_offset w30, -8
	.cfi_offset w29, -16
	mov	x8, x0
	sub	x0, x29, #1
	sturb	w8, [x29, #-1]
Ltmp49:
	.loc	10 1746 9 prologue_end
	bl	__ZN3std3sys4unix7process14process_common8ExitCode6as_i3217h9d071fb0572aac9bE
	str	w0, [sp, #8]
	b	LBB10_1
LBB10_1:
	.loc	10 0 9 is_stmt 0
	ldr	w0, [sp, #8]
	.loc	10 1747 6 is_stmt 1
	ldp	x29, x30, [sp, #16]
	add	sp, sp, #32
	ret
Ltmp50:
Lfunc_end10:
	.cfi_endproc

	.p2align	2
__ZN42_$LT$$RF$T$u20$as$u20$core..fmt..Debug$GT$3fmt17h8796ba4b7e5c0672E:
Lfunc_begin11:
	.file	11 "/rustc/fe5b13d681f25ee6474be29d748c65adcd91f69e/library/core/src/fmt/mod.rs"
	.loc	11 2132 0
	.cfi_startproc
	sub	sp, sp, #48
	stp	x29, x30, [sp, #32]
	add	x29, sp, #32
	.cfi_def_cfa w29, 16
	.cfi_offset w30, -8
	.cfi_offset w29, -16
	mov	x8, x0
	str	x8, [sp, #16]
	mov	x8, x1
	stur	x8, [x29, #-8]
Ltmp51:
	.loc	11 2132 71 prologue_end
	ldr	x0, [x0]
	.loc	11 2132 62 is_stmt 0
	bl	__ZN66_$LT$core..option..Option$LT$T$GT$$u20$as$u20$core..fmt..Debug$GT$3fmt17ha43a615442dac03cE
	str	w0, [sp, #12]
	b	LBB11_1
LBB11_1:
	.loc	11 0 62
	ldr	w8, [sp, #12]
	.loc	11 2132 84
	and	w0, w8, #0x1
	ldp	x29, x30, [sp, #32]
	add	sp, sp, #48
	ret
Ltmp52:
Lfunc_end11:
	.cfi_endproc

	.p2align	2
__ZN42_$LT$$RF$T$u20$as$u20$core..fmt..Debug$GT$3fmt17he3f483ec5e52f8e0E:
Lfunc_begin12:
	.loc	11 2132 0 is_stmt 1
	.cfi_startproc
	sub	sp, sp, #48
	stp	x29, x30, [sp, #32]
	add	x29, sp, #32
	.cfi_def_cfa w29, 16
	.cfi_offset w30, -8
	.cfi_offset w29, -16
	mov	x8, x0
	str	x8, [sp, #16]
	mov	x8, x1
	stur	x8, [x29, #-8]
Ltmp53:
	.loc	11 2132 71 prologue_end
	ldr	x0, [x0]
	.loc	11 2132 62 is_stmt 0
	bl	__ZN4core3fmt3num52_$LT$impl$u20$core..fmt..Debug$u20$for$u20$usize$GT$3fmt17h7acda0a973231891E
	str	w0, [sp, #12]
	b	LBB12_1
LBB12_1:
	.loc	11 0 62
	ldr	w8, [sp, #12]
	.loc	11 2132 84
	and	w0, w8, #0x1
	ldp	x29, x30, [sp, #32]
	add	sp, sp, #48
	ret
Ltmp54:
Lfunc_end12:
	.cfi_endproc

	.p2align	2
__ZN4core10intrinsics11write_bytes17ha3d6b7e9ec616a2aE:
Lfunc_begin13:
	.file	12 "/rustc/fe5b13d681f25ee6474be29d748c65adcd91f69e/library/core/src/intrinsics.rs"
	.loc	12 2279 0 is_stmt 1
	.cfi_startproc
	sub	sp, sp, #48
	stp	x29, x30, [sp, #32]
	add	x29, sp, #32
	.cfi_def_cfa w29, 16
	.cfi_offset w30, -8
	.cfi_offset w29, -16
	mov	x8, x0
	str	x8, [sp, #8]
	sturb	w1, [x29, #-9]
	stur	x2, [x29, #-8]
	mov	w8, #4
Ltmp55:
	.loc	12 2288 9 prologue_end
	mul	x2, x8, x2
	bl	_memset
	b	LBB13_1
LBB13_1:
	.loc	12 2290 2
	ldp	x29, x30, [sp, #32]
	add	sp, sp, #48
	ret
Ltmp56:
Lfunc_end13:
	.cfi_endproc

	.p2align	2
__ZN4core3cmp3Ord3max17h10d58de8e91d4516E:
Lfunc_begin14:
	.file	13 "/rustc/fe5b13d681f25ee6474be29d748c65adcd91f69e/library/core/src/cmp.rs"
	.loc	13 796 0
	.cfi_startproc
	sub	sp, sp, #32
	stp	x29, x30, [sp, #16]
	add	x29, sp, #16
	.cfi_def_cfa w29, 16
	.cfi_offset w30, -8
	.cfi_offset w29, -16
	str	w0, [sp, #8]
	stur	w1, [x29, #-4]
Ltmp57:
	.loc	13 800 9 prologue_end
	bl	__ZN4core3cmp6max_by17hc606238512c7b481E
	str	w0, [sp, #4]
	b	LBB14_1
LBB14_1:
	.loc	13 0 9 is_stmt 0
	ldr	w0, [sp, #4]
	.loc	13 801 6 is_stmt 1
	ldp	x29, x30, [sp, #16]
	add	sp, sp, #32
	ret
Ltmp58:
Lfunc_end14:
	.cfi_endproc

	.p2align	2
__ZN4core3cmp3Ord3min17h7efa1e4b17d79856E:
Lfunc_begin15:
	.loc	13 816 0
	.cfi_startproc
	sub	sp, sp, #48
	stp	x29, x30, [sp, #32]
	add	x29, sp, #32
	.cfi_def_cfa w29, 16
	.cfi_offset w30, -8
	.cfi_offset w29, -16
	str	w0, [sp, #16]
	str	w1, [sp, #20]
	stur	w2, [x29, #-8]
	stur	w3, [x29, #-4]
Ltmp59:
	.loc	13 820 9 prologue_end
	bl	__ZN4core3cmp6min_by17h8d58c7094272b2b6E
	str	w0, [sp, #8]
	str	w1, [sp, #12]
	b	LBB15_1
LBB15_1:
	.loc	13 0 9 is_stmt 0
	ldr	w1, [sp, #12]
	ldr	w0, [sp, #8]
	.loc	13 821 6 is_stmt 1
	ldp	x29, x30, [sp, #32]
	add	sp, sp, #48
	ret
Ltmp60:
Lfunc_end15:
	.cfi_endproc

	.p2align	2
__ZN4core3cmp5impls48_$LT$impl$u20$core..cmp..Ord$u20$for$u20$i32$GT$3cmp17he407bd6594edacfeE:
Lfunc_begin16:
	.loc	13 1408 0
	.cfi_startproc
	sub	sp, sp, #48
	.cfi_def_cfa_offset 48
	str	x0, [sp, #8]
	str	x1, [sp, #16]
	mov	x8, x0
	str	x8, [sp, #32]
	mov	x8, x1
	str	x8, [sp, #40]
Ltmp62:
	.loc	13 1411 24 prologue_end
	ldr	w8, [x0]
	.loc	13 1411 32 is_stmt 0
	ldr	w9, [x1]
	.loc	13 1411 24
	subs	w8, w8, w9
	b.lt	LBB16_2
	b	LBB16_1
LBB16_1:
	.loc	13 0 24
	ldr	x9, [sp, #16]
	ldr	x8, [sp, #8]
	.loc	13 1412 29 is_stmt 1
	ldr	w8, [x8]
	.loc	13 1412 38 is_stmt 0
	ldr	w9, [x9]
	.loc	13 1412 29
	subs	w8, w8, w9
	b.eq	LBB16_5
	b	LBB16_4
LBB16_2:
	.loc	13 0 29
	mov	w8, #255
	.loc	13 1411 41 is_stmt 1
	strb	w8, [sp, #31]
	.loc	13 1411 21 is_stmt 0
	b	LBB16_3
LBB16_3:
	.loc	13 1414 18 is_stmt 1
	ldrb	w0, [sp, #31]
	add	sp, sp, #48
	ret
LBB16_4:
	.loc	13 0 18 is_stmt 0
	mov	w8, #1
	.loc	13 1413 28 is_stmt 1
	strb	w8, [sp, #31]
	.loc	13 1412 26
	b	LBB16_6
LBB16_5:
	.loc	13 1412 47 is_stmt 0
	strb	wzr, [sp, #31]
	.loc	13 1412 26
	b	LBB16_6
LBB16_6:
	.loc	13 1411 21 is_stmt 1
	b	LBB16_3
Ltmp63:
Lfunc_end16:
	.cfi_endproc

	.p2align	2
__ZN4core3cmp5impls50_$LT$impl$u20$core..cmp..Ord$u20$for$u20$isize$GT$3cmp17h6169608f9cd3400dE:
Lfunc_begin17:
	.loc	13 1408 0
	.cfi_startproc
	sub	sp, sp, #48
	.cfi_def_cfa_offset 48
	str	x0, [sp, #8]
	str	x1, [sp, #16]
	mov	x8, x0
	str	x8, [sp, #32]
	mov	x8, x1
	str	x8, [sp, #40]
Ltmp65:
	.loc	13 1411 24 prologue_end
	ldr	x8, [x0]
	.loc	13 1411 32 is_stmt 0
	ldr	x9, [x1]
	.loc	13 1411 24
	subs	x8, x8, x9
	b.lt	LBB17_2
	b	LBB17_1
LBB17_1:
	.loc	13 0 24
	ldr	x9, [sp, #16]
	ldr	x8, [sp, #8]
	.loc	13 1412 29 is_stmt 1
	ldr	x8, [x8]
	.loc	13 1412 38 is_stmt 0
	ldr	x9, [x9]
	.loc	13 1412 29
	subs	x8, x8, x9
	b.eq	LBB17_5
	b	LBB17_4
LBB17_2:
	.loc	13 0 29
	mov	w8, #255
	.loc	13 1411 41 is_stmt 1
	strb	w8, [sp, #31]
	.loc	13 1411 21 is_stmt 0
	b	LBB17_3
LBB17_3:
	.loc	13 1414 18 is_stmt 1
	ldrb	w0, [sp, #31]
	add	sp, sp, #48
	ret
LBB17_4:
	.loc	13 0 18 is_stmt 0
	mov	w8, #1
	.loc	13 1413 28 is_stmt 1
	strb	w8, [sp, #31]
	.loc	13 1412 26
	b	LBB17_6
LBB17_5:
	.loc	13 1412 47 is_stmt 0
	strb	wzr, [sp, #31]
	.loc	13 1412 26
	b	LBB17_6
LBB17_6:
	.loc	13 1411 21 is_stmt 1
	b	LBB17_3
Ltmp66:
Lfunc_end17:
	.cfi_endproc

	.p2align	2
__ZN4core3cmp5impls56_$LT$impl$u20$core..cmp..PartialEq$u20$for$u20$usize$GT$2eq17h65542d0ee1fc9b86E:
Lfunc_begin18:
	.loc	13 1312 0
	.cfi_startproc
	sub	sp, sp, #16
	.cfi_def_cfa_offset 16
	mov	x8, x0
	str	x8, [sp]
	mov	x8, x1
	str	x8, [sp, #8]
Ltmp68:
	.loc	13 1312 52 prologue_end
	ldr	x8, [x0]
	.loc	13 1312 63 is_stmt 0
	ldr	x9, [x1]
	.loc	13 1312 52
	subs	x8, x8, x9
	cset	w8, eq
	.loc	13 1312 73
	and	w0, w8, #0x1
	add	sp, sp, #16
	ret
Ltmp69:
Lfunc_end18:
	.cfi_endproc

	.p2align	2
__ZN4core3cmp6max_by17hc606238512c7b481E:
Lfunc_begin19:
	.loc	13 1276 0 is_stmt 1
	.cfi_startproc
	.cfi_personality 155, _rust_eh_personality
	.cfi_lsda 16, Lexception2
	sub	sp, sp, #80
	stp	x29, x30, [sp, #64]
	add	x29, sp, #64
	.cfi_def_cfa w29, 16
	.cfi_offset w30, -8
	.cfi_offset w29, -16
	add	x9, sp, #8
	str	w0, [sp, #8]
	add	x8, sp, #12
	str	w1, [sp, #12]
Ltmp73:
	.loc	13 1277 11 prologue_end
	sturb	wzr, [x29, #-18]
	sturb	wzr, [x29, #-19]
	mov	w10, #1
	sturb	w10, [x29, #-18]
	sturb	w10, [x29, #-19]
	str	x9, [sp, #24]
	str	x8, [sp, #32]
	ldr	x0, [sp, #24]
	ldr	x1, [sp, #32]
Ltmp70:
	bl	__ZN4core3ops8function6FnOnce9call_once17h96051e5ee230f1b4E
	str	w0, [sp, #4]
Ltmp71:
	b	LBB19_3
LBB19_1:
	.loc	13 1281 1
	b	LBB19_5
LBB19_2:
Ltmp72:
	.loc	13 0 1 is_stmt 0
	mov	x8, x1
	stur	x0, [x29, #-16]
	stur	w8, [x29, #-8]
	b	LBB19_1
LBB19_3:
	ldr	w8, [sp, #4]
	.loc	13 1277 11 is_stmt 1
	strb	w8, [sp, #23]
	ldrb	w8, [sp, #23]
	.loc	13 1277 5 is_stmt 0
	add	w8, w8, #1
	and	w8, w8, #0xff
	subs	w8, w8, #1
	b.ls	LBB19_7
	b	LBB19_4
LBB19_4:
	b	LBB19_8
LBB19_5:
	.loc	13 1281 1 is_stmt 1
	ldurb	w8, [x29, #-18]
	tbnz	w8, #0, LBB19_13
	b	LBB19_12
LBB19_7:
	.loc	13 1278 45
	sturb	wzr, [x29, #-19]
	ldr	w8, [sp, #12]
	str	w8, [sp, #16]
	b	LBB19_9
LBB19_8:
	.loc	13 1279 30
	sturb	wzr, [x29, #-18]
	ldr	w8, [sp, #8]
	str	w8, [sp, #16]
	b	LBB19_9
LBB19_9:
	.loc	13 1281 1
	ldurb	w8, [x29, #-19]
	tbnz	w8, #0, LBB19_11
	b	LBB19_10
LBB19_10:
	ldurb	w8, [x29, #-18]
	tbnz	w8, #0, LBB19_15
	b	LBB19_14
LBB19_11:
	b	LBB19_10
LBB19_12:
	.loc	13 1276 1
	ldur	x0, [x29, #-16]
	bl	__Unwind_Resume
LBB19_13:
	.loc	13 1281 1
	b	LBB19_12
LBB19_14:
	.loc	13 1281 2 is_stmt 0
	ldr	w0, [sp, #16]
	ldp	x29, x30, [sp, #64]
	add	sp, sp, #80
	ret
LBB19_15:
	.loc	13 1281 1
	b	LBB19_14
Ltmp74:
Lfunc_end19:
	.cfi_endproc
	.section	__TEXT,__gcc_except_tab
	.p2align	2
GCC_except_table19:
Lexception2:
	.byte	255
	.byte	255
	.byte	1
	.uleb128 Lcst_end2-Lcst_begin2
Lcst_begin2:
	.uleb128 Ltmp70-Lfunc_begin19
	.uleb128 Ltmp71-Ltmp70
	.uleb128 Ltmp72-Lfunc_begin19
	.byte	0
	.uleb128 Ltmp71-Lfunc_begin19
	.uleb128 Lfunc_end19-Ltmp71
	.byte	0
	.byte	0
Lcst_end2:
	.p2align	2

	.section	__TEXT,__text,regular,pure_instructions
	.p2align	2
__ZN4core3cmp6min_by17h8d58c7094272b2b6E:
Lfunc_begin20:
	.loc	13 1213 0 is_stmt 1
	.cfi_startproc
	.cfi_personality 155, _rust_eh_personality
	.cfi_lsda 16, Lexception3
	sub	sp, sp, #96
	stp	x29, x30, [sp, #80]
	add	x29, sp, #80
	.cfi_def_cfa w29, 16
	.cfi_offset w30, -8
	.cfi_offset w29, -16
	add	x9, sp, #12
	str	w0, [sp, #12]
	str	w1, [sp, #16]
	add	x8, sp, #20
	str	w2, [sp, #20]
	str	w3, [sp, #24]
Ltmp78:
	.loc	13 1214 11 prologue_end
	sturb	wzr, [x29, #-18]
	sturb	wzr, [x29, #-19]
	mov	w10, #1
	sturb	w10, [x29, #-18]
	sturb	w10, [x29, #-19]
	str	x9, [sp, #40]
	str	x8, [sp, #48]
	ldr	x0, [sp, #40]
	ldr	x1, [sp, #48]
Ltmp75:
	bl	__ZN4core3ops8function6FnOnce9call_once17h43360e708eb5c487E
	str	w0, [sp, #8]
Ltmp76:
	b	LBB20_3
LBB20_1:
	.loc	13 1218 1
	b	LBB20_5
LBB20_2:
Ltmp77:
	.loc	13 0 1 is_stmt 0
	mov	x8, x1
	stur	x0, [x29, #-16]
	stur	w8, [x29, #-8]
	b	LBB20_1
LBB20_3:
	ldr	w8, [sp, #8]
	.loc	13 1214 11 is_stmt 1
	strb	w8, [sp, #39]
	ldrb	w8, [sp, #39]
	.loc	13 1214 5 is_stmt 0
	add	w8, w8, #1
	and	w8, w8, #0xff
	subs	w8, w8, #1
	b.ls	LBB20_7
	b	LBB20_4
LBB20_4:
	b	LBB20_8
LBB20_5:
	.loc	13 1218 1 is_stmt 1
	ldurb	w8, [x29, #-18]
	tbnz	w8, #0, LBB20_13
	b	LBB20_12
LBB20_7:
	.loc	13 1215 45
	sturb	wzr, [x29, #-18]
	ldr	w9, [sp, #12]
	ldr	w8, [sp, #16]
	str	w9, [sp, #28]
	str	w8, [sp, #32]
	b	LBB20_9
LBB20_8:
	.loc	13 1216 30
	sturb	wzr, [x29, #-19]
	ldr	w9, [sp, #20]
	ldr	w8, [sp, #24]
	str	w9, [sp, #28]
	str	w8, [sp, #32]
	b	LBB20_9
LBB20_9:
	.loc	13 1218 1
	ldurb	w8, [x29, #-19]
	tbnz	w8, #0, LBB20_11
	b	LBB20_10
LBB20_10:
	ldurb	w8, [x29, #-18]
	tbnz	w8, #0, LBB20_15
	b	LBB20_14
LBB20_11:
	b	LBB20_10
LBB20_12:
	.loc	13 1213 1
	ldur	x0, [x29, #-16]
	bl	__Unwind_Resume
LBB20_13:
	.loc	13 1218 1
	b	LBB20_12
LBB20_14:
	.loc	13 1218 2 is_stmt 0
	ldr	w0, [sp, #28]
	ldr	w1, [sp, #32]
	ldp	x29, x30, [sp, #80]
	add	sp, sp, #96
	ret
LBB20_15:
	.loc	13 1218 1
	b	LBB20_14
Ltmp79:
Lfunc_end20:
	.cfi_endproc
	.section	__TEXT,__gcc_except_tab
	.p2align	2
GCC_except_table20:
Lexception3:
	.byte	255
	.byte	255
	.byte	1
	.uleb128 Lcst_end3-Lcst_begin3
Lcst_begin3:
	.uleb128 Ltmp75-Lfunc_begin20
	.uleb128 Ltmp76-Ltmp75
	.uleb128 Ltmp77-Lfunc_begin20
	.byte	0
	.uleb128 Ltmp76-Lfunc_begin20
	.uleb128 Lfunc_end20-Ltmp76
	.byte	0
	.byte	0
Lcst_end3:
	.p2align	2

	.section	__TEXT,__text,regular,pure_instructions
	.p2align	2
__ZN4core3fmt10ArgumentV13new17h318d2686ea7016e0E:
Lfunc_begin21:
	.loc	11 326 0 is_stmt 1
	.cfi_startproc
	sub	sp, sp, #80
	.cfi_def_cfa_offset 80
	str	x0, [sp, #16]
	str	x0, [sp, #48]
	mov	x8, x1
	str	x8, [sp, #56]
Ltmp81:
	.loc	11 335 42 prologue_end
	str	x1, [sp, #64]
	ldr	x8, [sp, #64]
	str	x8, [sp, #24]
	b	LBB21_1
LBB21_1:
	.loc	11 0 42 is_stmt 0
	ldr	x8, [sp, #16]
	.loc	11 335 68
	str	x8, [sp, #72]
	ldr	x8, [sp, #72]
	str	x8, [sp, #8]
	b	LBB21_2
LBB21_2:
	.loc	11 0 68
	ldr	x8, [sp, #24]
	ldr	x9, [sp, #8]
	.loc	11 335 18
	str	x9, [sp, #32]
	str	x8, [sp, #40]
	.loc	11 336 6 is_stmt 1
	ldr	x0, [sp, #32]
	ldr	x1, [sp, #40]
	add	sp, sp, #80
	ret
Ltmp82:
Lfunc_end21:
	.cfi_endproc

	.p2align	2
__ZN4core3fmt10ArgumentV19new_debug17h068a0f6e68f85961E:
Lfunc_begin22:
	.loc	11 316 0
	.cfi_startproc
	sub	sp, sp, #48
	stp	x29, x30, [sp, #32]
	add	x29, sp, #32
	.cfi_def_cfa w29, 16
	.cfi_offset w30, -8
	.cfi_offset w29, -16
	mov	x8, x0
	stur	x8, [x29, #-8]
Ltmp83:
	.loc	11 0 0 is_stmt 0
	adrp	x1, __ZN4core3fmt3num50_$LT$impl$u20$core..fmt..Debug$u20$for$u20$i32$GT$3fmt17hd6a1145543241b28E@PAGE
	add	x1, x1, __ZN4core3fmt3num50_$LT$impl$u20$core..fmt..Debug$u20$for$u20$i32$GT$3fmt17hd6a1145543241b28E@PAGEOFF
	.loc	11 317 13 prologue_end is_stmt 1
	bl	__ZN4core3fmt10ArgumentV13new17h318d2686ea7016e0E
	str	x0, [sp, #8]
	str	x1, [sp, #16]
	b	LBB22_1
LBB22_1:
	.loc	11 0 13 is_stmt 0
	ldr	x1, [sp, #16]
	ldr	x0, [sp, #8]
	.loc	11 318 10 is_stmt 1
	ldp	x29, x30, [sp, #32]
	add	sp, sp, #48
	ret
Ltmp84:
Lfunc_end22:
	.cfi_endproc

	.p2align	2
__ZN4core3fmt3num50_$LT$impl$u20$core..fmt..Debug$u20$for$u20$i32$GT$3fmt17hd6a1145543241b28E:
Lfunc_begin23:
	.file	14 "/rustc/fe5b13d681f25ee6474be29d748c65adcd91f69e/library/core/src/fmt/num.rs"
	.loc	14 185 0
	.cfi_startproc
	sub	sp, sp, #64
	stp	x29, x30, [sp, #48]
	add	x29, sp, #48
	.cfi_def_cfa w29, 16
	.cfi_offset w30, -8
	.cfi_offset w29, -16
	mov	x8, x0
	str	x8, [sp, #8]
	mov	x0, x1
	str	x0, [sp, #16]
	stur	x8, [x29, #-16]
	mov	x1, x0
	stur	x1, [x29, #-8]
Ltmp85:
	.loc	14 186 20 prologue_end
	bl	__ZN4core3fmt9Formatter15debug_lower_hex17hcd0f57c76571bc01E
	str	w0, [sp, #24]
	b	LBB23_1
LBB23_1:
	.loc	14 0 20 is_stmt 0
	ldr	w8, [sp, #24]
	.loc	14 186 20
	tbnz	w8, #0, LBB23_3
	b	LBB23_2
LBB23_2:
	.loc	14 0 20
	ldr	x0, [sp, #16]
	.loc	14 188 27 is_stmt 1
	bl	__ZN4core3fmt9Formatter15debug_upper_hex17h831ae96c4e16f8e9E
	str	w0, [sp, #4]
	b	LBB23_6
LBB23_3:
	.loc	14 0 27 is_stmt 0
	ldr	x1, [sp, #16]
	ldr	x0, [sp, #8]
	.loc	14 187 21 is_stmt 1
	bl	__ZN4core3fmt3num53_$LT$impl$u20$core..fmt..LowerHex$u20$for$u20$i32$GT$3fmt17hbb6cdedf48e07242E
	and	w8, w0, #0x1
	sturb	w8, [x29, #-17]
	b	LBB23_4
LBB23_4:
	.loc	14 186 17
	b	LBB23_5
LBB23_5:
	.loc	14 193 14
	ldurb	w8, [x29, #-17]
	and	w0, w8, #0x1
	ldp	x29, x30, [sp, #48]
	add	sp, sp, #64
	ret
LBB23_6:
	.loc	14 0 14 is_stmt 0
	ldr	w8, [sp, #4]
	.loc	14 188 27 is_stmt 1
	tbnz	w8, #0, LBB23_8
	b	LBB23_7
LBB23_7:
	.loc	14 0 27 is_stmt 0
	ldr	x1, [sp, #16]
	ldr	x0, [sp, #8]
	.loc	14 191 21 is_stmt 1
	bl	__ZN4core3fmt3num3imp52_$LT$impl$u20$core..fmt..Display$u20$for$u20$i32$GT$3fmt17he17c01c772fe4f3fE
	and	w8, w0, #0x1
	sturb	w8, [x29, #-17]
	b	LBB23_11
LBB23_8:
	.loc	14 0 21 is_stmt 0
	ldr	x1, [sp, #16]
	ldr	x0, [sp, #8]
	.loc	14 189 21 is_stmt 1
	bl	__ZN4core3fmt3num53_$LT$impl$u20$core..fmt..UpperHex$u20$for$u20$i32$GT$3fmt17h7caa8d658a7942ccE
	and	w8, w0, #0x1
	sturb	w8, [x29, #-17]
	b	LBB23_9
LBB23_9:
	.loc	14 188 24
	b	LBB23_10
LBB23_10:
	.loc	14 186 17
	b	LBB23_5
LBB23_11:
	.loc	14 188 24
	b	LBB23_10
Ltmp86:
Lfunc_end23:
	.cfi_endproc

	.p2align	2
__ZN4core3fmt3num52_$LT$impl$u20$core..fmt..Debug$u20$for$u20$usize$GT$3fmt17h7acda0a973231891E:
Lfunc_begin24:
	.loc	14 185 0
	.cfi_startproc
	sub	sp, sp, #64
	stp	x29, x30, [sp, #48]
	add	x29, sp, #48
	.cfi_def_cfa w29, 16
	.cfi_offset w30, -8
	.cfi_offset w29, -16
	mov	x8, x0
	str	x8, [sp, #8]
	mov	x0, x1
	str	x0, [sp, #16]
	stur	x8, [x29, #-16]
	mov	x1, x0
	stur	x1, [x29, #-8]
Ltmp87:
	.loc	14 186 20 prologue_end
	bl	__ZN4core3fmt9Formatter15debug_lower_hex17hcd0f57c76571bc01E
	str	w0, [sp, #24]
	b	LBB24_1
LBB24_1:
	.loc	14 0 20 is_stmt 0
	ldr	w8, [sp, #24]
	.loc	14 186 20
	tbnz	w8, #0, LBB24_3
	b	LBB24_2
LBB24_2:
	.loc	14 0 20
	ldr	x0, [sp, #16]
	.loc	14 188 27 is_stmt 1
	bl	__ZN4core3fmt9Formatter15debug_upper_hex17h831ae96c4e16f8e9E
	str	w0, [sp, #4]
	b	LBB24_6
LBB24_3:
	.loc	14 0 27 is_stmt 0
	ldr	x1, [sp, #16]
	ldr	x0, [sp, #8]
	.loc	14 187 21 is_stmt 1
	bl	__ZN4core3fmt3num55_$LT$impl$u20$core..fmt..LowerHex$u20$for$u20$usize$GT$3fmt17he602dfe453e45f77E
	and	w8, w0, #0x1
	sturb	w8, [x29, #-17]
	b	LBB24_4
LBB24_4:
	.loc	14 186 17
	b	LBB24_5
LBB24_5:
	.loc	14 193 14
	ldurb	w8, [x29, #-17]
	and	w0, w8, #0x1
	ldp	x29, x30, [sp, #48]
	add	sp, sp, #64
	ret
LBB24_6:
	.loc	14 0 14 is_stmt 0
	ldr	w8, [sp, #4]
	.loc	14 188 27 is_stmt 1
	tbnz	w8, #0, LBB24_8
	b	LBB24_7
LBB24_7:
	.loc	14 0 27 is_stmt 0
	ldr	x1, [sp, #16]
	ldr	x0, [sp, #8]
	.loc	14 191 21 is_stmt 1
	bl	__ZN4core3fmt3num3imp54_$LT$impl$u20$core..fmt..Display$u20$for$u20$usize$GT$3fmt17h06744bbbf922f391E
	and	w8, w0, #0x1
	sturb	w8, [x29, #-17]
	b	LBB24_11
LBB24_8:
	.loc	14 0 21 is_stmt 0
	ldr	x1, [sp, #16]
	ldr	x0, [sp, #8]
	.loc	14 189 21 is_stmt 1
	bl	__ZN4core3fmt3num55_$LT$impl$u20$core..fmt..UpperHex$u20$for$u20$usize$GT$3fmt17had2d0ca1cee5a171E
	and	w8, w0, #0x1
	sturb	w8, [x29, #-17]
	b	LBB24_9
LBB24_9:
	.loc	14 188 24
	b	LBB24_10
LBB24_10:
	.loc	14 186 17
	b	LBB24_5
LBB24_11:
	.loc	14 188 24
	b	LBB24_10
Ltmp88:
Lfunc_end24:
	.cfi_endproc

	.p2align	2
__ZN4core3fmt9Arguments6new_v117h26d53a7aec6ead62E:
Lfunc_begin25:
	.loc	11 387 0
	.cfi_startproc
	sub	sp, sp, #160
	stp	x29, x30, [sp, #144]
	add	x29, sp, #144
	.cfi_def_cfa w29, 16
	.cfi_offset w30, -8
	.cfi_offset w29, -16
	str	x8, [sp]
	str	x0, [sp, #8]
	str	x1, [sp, #16]
	str	x2, [sp, #24]
	str	x3, [sp, #32]
	stur	x0, [x29, #-32]
	stur	x1, [x29, #-24]
	stur	x2, [x29, #-16]
	stur	x3, [x29, #-8]
Ltmp89:
	.loc	11 388 12 prologue_end
	subs	x8, x1, x3
	b.lo	LBB25_2
	b	LBB25_1
LBB25_1:
	.loc	11 0 12 is_stmt 0
	ldr	x8, [sp, #16]
	ldr	x9, [sp, #32]
	.loc	11 388 56
	add	x9, x9, #1
	.loc	11 388 41
	subs	x8, x8, x9
	cset	w8, hi
	.loc	11 388 12
	and	w8, w8, #0x1
	strb	w8, [sp, #47]
	b	LBB25_3
LBB25_2:
	.loc	11 0 12
	mov	w8, #1
	.loc	11 388 12
	strb	w8, [sp, #47]
	b	LBB25_3
LBB25_3:
	ldrb	w8, [sp, #47]
	tbnz	w8, #0, LBB25_5
	b	LBB25_4
LBB25_4:
	.loc	11 0 12
	ldr	x8, [sp, #32]
	ldr	x9, [sp]
	ldr	x10, [sp, #24]
	ldr	x11, [sp, #16]
	ldr	x12, [sp, #8]
	.loc	11 391 34 is_stmt 1
	stur	xzr, [x29, #-48]
	stur	xzr, [x29, #-40]
	stur	xzr, [x29, #-48]
	.loc	11 391 9 is_stmt 0
	str	x12, [x9]
	str	x11, [x9, #8]
	ldur	x12, [x29, #-48]
	ldur	x11, [x29, #-40]
	str	x12, [x9, #16]
	str	x11, [x9, #24]
	str	x10, [x9, #32]
	str	x8, [x9, #40]
	.loc	11 392 6 is_stmt 1
	ldp	x29, x30, [sp, #144]
	add	sp, sp, #160
	ret
LBB25_5:
	.loc	11 0 6 is_stmt 0
	add	x8, sp, #48
	adrp	x0, l___unnamed_4@PAGE
	add	x0, x0, l___unnamed_4@PAGEOFF
	mov	w9, #1
	mov	x1, x9
	adrp	x2, l___unnamed_5@PAGE
	add	x2, x2, l___unnamed_5@PAGEOFF
	mov	x3, #0
	.loc	11 389 13 is_stmt 1
	bl	__ZN4core3fmt9Arguments6new_v117h26d53a7aec6ead62E
	b	LBB25_6
LBB25_6:
	.loc	11 0 13 is_stmt 0
	add	x0, sp, #48
	adrp	x1, l___unnamed_6@PAGE
	add	x1, x1, l___unnamed_6@PAGEOFF
	.loc	11 389 13
	bl	__ZN4core9panicking9panic_fmt17hfc743f4016412d36E
Ltmp90:
Lfunc_end25:
	.cfi_endproc

	.p2align	2
__ZN4core3mem12maybe_uninit20MaybeUninit$LT$T$GT$6zeroed17h3b54f8a442b6b5f6E:
Lfunc_begin26:
	.file	15 "/rustc/fe5b13d681f25ee6474be29d748c65adcd91f69e/library/core/src/mem/maybe_uninit.rs"
	.loc	15 402 0 is_stmt 1
	.cfi_startproc
	sub	sp, sp, #64
	stp	x29, x30, [sp, #48]
	add	x29, sp, #48
	.cfi_def_cfa w29, 16
	.cfi_offset w30, -8
	.cfi_offset w29, -16
Ltmp91:
	.loc	15 322 6 prologue_end
	ldr	w8, [sp, #20]
Ltmp92:
	.loc	15 403 21
	str	w8, [sp, #4]
	b	LBB26_1
LBB26_1:
	.loc	15 0 21 is_stmt 0
	add	x8, sp, #4
	str	x8, [sp, #8]
Ltmp93:
	.loc	15 406 13 is_stmt 1
	b	LBB26_2
LBB26_2:
	.loc	15 0 13 is_stmt 0
	add	x0, sp, #4
	mov	x8, x0
	str	x8, [sp, #24]
	sturb	wzr, [x29, #-9]
	mov	w8, #1
	mov	x2, x8
	stur	x2, [x29, #-8]
	mov	w1, #0
Ltmp94:
	.file	16 "/rustc/fe5b13d681f25ee6474be29d748c65adcd91f69e/library/core/src/ptr/mut_ptr.rs"
	.loc	16 1173 18 is_stmt 1
	bl	__ZN4core10intrinsics11write_bytes17ha3d6b7e9ec616a2aE
Ltmp95:
	.loc	15 406 13
	b	LBB26_3
Ltmp96:
LBB26_3:
	.loc	15 409 6
	ldr	w0, [sp, #4]
	ldp	x29, x30, [sp, #48]
	add	sp, sp, #64
	ret
Ltmp97:
Lfunc_end26:
	.cfi_endproc

	.p2align	2
__ZN4core3mem13manually_drop21ManuallyDrop$LT$T$GT$4take17h9c602fef5e97294fE:
Lfunc_begin27:
	.file	17 "/rustc/fe5b13d681f25ee6474be29d748c65adcd91f69e/library/core/src/mem/manually_drop.rs"
	.loc	17 110 0
	.cfi_startproc
	sub	sp, sp, #32
	stp	x29, x30, [sp, #16]
	add	x29, sp, #16
	.cfi_def_cfa w29, 16
	.cfi_offset w30, -8
	.cfi_offset w29, -16
	mov	x8, x0
	str	x8, [sp, #8]
Ltmp98:
	.loc	17 113 18 prologue_end
	bl	__ZN4core3ptr4read17h71423e98d00635bcE
	b	LBB27_1
LBB27_1:
	.loc	17 114 6
	ldp	x29, x30, [sp, #16]
	add	sp, sp, #32
	ret
Ltmp99:
Lfunc_end27:
	.cfi_endproc

	.p2align	2
__ZN4core3num23_$LT$impl$u20$usize$GT$11checked_mul17h8f70a222f7f608d3E:
Lfunc_begin28:
	.loc	4 552 0
	.cfi_startproc
	sub	sp, sp, #144
	.cfi_def_cfa_offset 144
	str	x0, [sp, #48]
	str	x1, [sp, #56]
	str	x0, [sp, #96]
	str	x1, [sp, #104]
Ltmp101:
	.loc	4 1683 26 prologue_end
	umulh	x8, x0, x1
	mul	x10, x0, x1
	subs	x8, x8, #0
	cset	w8, ne
	mov	w9, #1
	and	w8, w8, w9
	str	x10, [sp, #112]
	strb	w8, [sp, #120]
	ldr	x10, [sp, #112]
	ldrb	w8, [sp, #120]
	.loc	4 1683 18 is_stmt 0
	str	x10, [sp, #128]
	.loc	4 1683 21
	and	w11, w8, w9
	strb	w11, [sp, #143]
Ltmp102:
	.loc	4 1684 13 is_stmt 1
	str	x10, [sp, #80]
	and	w8, w8, w9
	strb	w8, [sp, #88]
Ltmp103:
	.loc	4 1685 10
	ldr	x8, [sp, #80]
	str	x8, [sp, #16]
	ldrb	w8, [sp, #88]
	and	w8, w8, #0x1
	str	w8, [sp, #28]
Ltmp104:
	.loc	4 553 26
	b	LBB28_1
LBB28_1:
	.loc	4 0 26 is_stmt 0
	ldr	w8, [sp, #28]
	ldr	x9, [sp, #16]
	.loc	4 553 18
	str	x9, [sp, #64]
	mov	w9, #1
	.loc	4 553 21
	and	w9, w8, w9
	strb	w9, [sp, #78]
Ltmp105:
	.loc	4 554 16 is_stmt 1
	and	w8, w8, #0x1
	strb	w8, [sp, #79]
	ldrb	w8, [sp, #79]
	str	w8, [sp, #12]
	b	LBB28_2
LBB28_2:
	.loc	4 0 16 is_stmt 0
	ldr	w8, [sp, #12]
	.loc	4 554 16
	tbnz	w8, #0, LBB28_4
	b	LBB28_3
LBB28_3:
	.loc	4 0 16
	ldr	x8, [sp, #16]
	.loc	4 554 42
	str	x8, [sp, #40]
	mov	w8, #1
	str	x8, [sp, #32]
	.loc	4 554 13
	b	LBB28_5
LBB28_4:
	.loc	4 554 30
	str	xzr, [sp, #32]
	.loc	4 554 13
	b	LBB28_5
Ltmp106:
LBB28_5:
	.loc	4 555 10 is_stmt 1
	ldr	x0, [sp, #32]
	ldr	x1, [sp, #40]
	add	sp, sp, #144
	ret
Ltmp107:
Lfunc_end28:
	.cfi_endproc

	.p2align	2
__ZN4core3num7nonzero12NonZeroUsize13new_unchecked17h48fd1f29e8640488E:
Lfunc_begin29:
	.file	18 "/rustc/fe5b13d681f25ee6474be29d748c65adcd91f69e/library/core/src/num/nonzero.rs"
	.loc	18 56 0
	.cfi_startproc
	sub	sp, sp, #16
	.cfi_def_cfa_offset 16
	str	x0, [sp, #8]
Ltmp109:
	.loc	18 60 25 prologue_end
	str	x0, [sp]
	.loc	18 62 18
	ldr	x0, [sp]
	add	sp, sp, #16
	ret
Ltmp110:
Lfunc_end29:
	.cfi_endproc

	.p2align	2
__ZN4core3num7nonzero12NonZeroUsize3get17he0c1c3c01a7926ceE:
Lfunc_begin30:
	.loc	18 82 0
	.cfi_startproc
	sub	sp, sp, #16
	.cfi_def_cfa_offset 16
	str	x0, [sp, #8]
Ltmp112:
	.loc	18 84 18 prologue_end
	add	sp, sp, #16
	ret
Ltmp113:
Lfunc_end30:
	.cfi_endproc

	.p2align	2
__ZN4core3ops8function6FnOnce40call_once$u7b$$u7b$vtable.shim$u7d$$u7d$17hc2192c66f2523485E:
Lfunc_begin31:
	.file	19 "/rustc/fe5b13d681f25ee6474be29d748c65adcd91f69e/library/core/src/ops/function.rs"
	.loc	19 227 0
	.cfi_startproc
	sub	sp, sp, #32
	stp	x29, x30, [sp, #16]
	add	x29, sp, #16
	.cfi_def_cfa w29, 16
	.cfi_offset w30, -8
	.cfi_offset w29, -16
	mov	x8, x0
	str	x8, [sp, #8]
Ltmp114:
	.loc	19 227 5 prologue_end
	ldr	x0, [x0]
	bl	__ZN4core3ops8function6FnOnce9call_once17h391c4de827605eecE
	str	w0, [sp]
	b	LBB31_1
LBB31_1:
	.loc	19 0 5 is_stmt 0
	ldr	w0, [sp]
	.loc	19 227 5
	ldp	x29, x30, [sp, #16]
	add	sp, sp, #32
	ret
Ltmp115:
Lfunc_end31:
	.cfi_endproc

	.p2align	2
__ZN4core3ops8function6FnOnce9call_once17h391c4de827605eecE:
Lfunc_begin32:
	.loc	19 227 0 is_stmt 1
	.cfi_startproc
	.cfi_personality 155, _rust_eh_personality
	.cfi_lsda 16, Lexception4
	sub	sp, sp, #64
	stp	x29, x30, [sp, #48]
	add	x29, sp, #48
	.cfi_def_cfa w29, 16
	.cfi_offset w30, -8
	.cfi_offset w29, -16
	mov	x8, x0
	add	x0, sp, #16
	str	x8, [sp, #16]
Ltmp116:
Ltmp119:
	.loc	19 227 5 prologue_end
	bl	__ZN3std2rt10lang_start28_$u7b$$u7b$closure$u7d$$u7d$17hf8d61c53a03450ebE
	str	w0, [sp, #12]
Ltmp117:
	b	LBB32_3
LBB32_1:
	b	LBB32_4
LBB32_2:
Ltmp118:
	.loc	19 0 5 is_stmt 0
	mov	x8, x1
	stur	x0, [x29, #-16]
	stur	w8, [x29, #-8]
	b	LBB32_1
LBB32_3:
	.loc	19 227 5
	b	LBB32_5
LBB32_4:
	ldur	x0, [x29, #-16]
	bl	__Unwind_Resume
LBB32_5:
	.loc	19 0 5
	ldr	w0, [sp, #12]
	.loc	19 227 5
	ldp	x29, x30, [sp, #48]
	add	sp, sp, #64
	ret
Ltmp120:
Lfunc_end32:
	.cfi_endproc
	.section	__TEXT,__gcc_except_tab
	.p2align	2
GCC_except_table32:
Lexception4:
	.byte	255
	.byte	255
	.byte	1
	.uleb128 Lcst_end4-Lcst_begin4
Lcst_begin4:
	.uleb128 Ltmp116-Lfunc_begin32
	.uleb128 Ltmp117-Ltmp116
	.uleb128 Ltmp118-Lfunc_begin32
	.byte	0
	.uleb128 Ltmp117-Lfunc_begin32
	.uleb128 Lfunc_end32-Ltmp117
	.byte	0
	.byte	0
Lcst_end4:
	.p2align	2

	.section	__TEXT,__text,regular,pure_instructions
	.p2align	2
__ZN4core3ops8function6FnOnce9call_once17h43360e708eb5c487E:
Lfunc_begin33:
	.loc	19 227 0 is_stmt 1
	.cfi_startproc
	sub	sp, sp, #48
	stp	x29, x30, [sp, #32]
	add	x29, sp, #32
	.cfi_def_cfa w29, 16
	.cfi_offset w30, -8
	.cfi_offset w29, -16
	str	x0, [sp, #8]
	str	x1, [sp, #16]
Ltmp121:
	.loc	19 227 5 prologue_end
	ldr	x0, [sp, #8]
	ldr	x1, [sp, #16]
	bl	__ZN64_$LT$core..option..Option$LT$T$GT$$u20$as$u20$core..cmp..Ord$GT$3cmp17hbb938f58327fd82aE
	str	w0, [sp, #4]
	b	LBB33_1
LBB33_1:
	.loc	19 0 5 is_stmt 0
	ldr	w0, [sp, #4]
	.loc	19 227 5
	ldp	x29, x30, [sp, #32]
	add	sp, sp, #48
	ret
Ltmp122:
Lfunc_end33:
	.cfi_endproc

	.p2align	2
__ZN4core3ops8function6FnOnce9call_once17h96051e5ee230f1b4E:
Lfunc_begin34:
	.loc	19 227 0 is_stmt 1
	.cfi_startproc
	sub	sp, sp, #48
	stp	x29, x30, [sp, #32]
	add	x29, sp, #32
	.cfi_def_cfa w29, 16
	.cfi_offset w30, -8
	.cfi_offset w29, -16
	str	x0, [sp, #8]
	str	x1, [sp, #16]
Ltmp123:
	.loc	19 227 5 prologue_end
	ldr	x0, [sp, #8]
	ldr	x1, [sp, #16]
	bl	__ZN4core3cmp5impls48_$LT$impl$u20$core..cmp..Ord$u20$for$u20$i32$GT$3cmp17he407bd6594edacfeE
	str	w0, [sp, #4]
	b	LBB34_1
LBB34_1:
	.loc	19 0 5 is_stmt 0
	ldr	w0, [sp, #4]
	.loc	19 227 5
	ldp	x29, x30, [sp, #32]
	add	sp, sp, #48
	ret
Ltmp124:
Lfunc_end34:
	.cfi_endproc

	.p2align	2
__ZN4core3ops8function6FnOnce9call_once17hb91d6b041552521dE:
Lfunc_begin35:
	.loc	19 227 0 is_stmt 1
	.cfi_startproc
	sub	sp, sp, #32
	stp	x29, x30, [sp, #16]
	add	x29, sp, #16
	.cfi_def_cfa w29, 16
	.cfi_offset w30, -8
	.cfi_offset w29, -16
	str	x0, [sp, #8]
Ltmp125:
	.loc	19 227 5 prologue_end
	blr	x0
	b	LBB35_1
LBB35_1:
	ldp	x29, x30, [sp, #16]
	add	sp, sp, #32
	ret
Ltmp126:
Lfunc_end35:
	.cfi_endproc

	.p2align	2
__ZN4core3ptr157drop_in_place$LT$$LT$alloc..vec..into_iter..IntoIter$LT$T$C$A$GT$$u20$as$u20$core..ops..drop..Drop$GT$..drop..DropGuard$LT$i32$C$alloc..alloc..Global$GT$$GT$17h8d1d2aa79eed0406E:
Lfunc_begin36:
	.file	20 "/rustc/fe5b13d681f25ee6474be29d748c65adcd91f69e/library/core/src/ptr/mod.rs"
	.loc	20 448 0
	.cfi_startproc
	sub	sp, sp, #32
	stp	x29, x30, [sp, #16]
	add	x29, sp, #16
	.cfi_def_cfa w29, 16
	.cfi_offset w30, -8
	.cfi_offset w29, -16
	mov	x8, x0
	str	x8, [sp, #8]
Ltmp127:
	.loc	20 448 1 prologue_end
	bl	__ZN157_$LT$$LT$alloc..vec..into_iter..IntoIter$LT$T$C$A$GT$$u20$as$u20$core..ops..drop..Drop$GT$..drop..DropGuard$LT$T$C$A$GT$$u20$as$u20$core..ops..drop..Drop$GT$4drop17h2989f3b09bbc03d2E
	b	LBB36_1
LBB36_1:
	ldp	x29, x30, [sp, #16]
	add	sp, sp, #32
	ret
Ltmp128:
Lfunc_end36:
	.cfi_endproc

	.p2align	2
__ZN4core3ptr24slice_from_raw_parts_mut17h5d122423e0f092baE:
Lfunc_begin37:
	.loc	20 605 0
	.cfi_startproc
	sub	sp, sp, #80
	stp	x29, x30, [sp, #64]
	add	x29, sp, #64
	.cfi_def_cfa w29, 16
	.cfi_offset w30, -8
	.cfi_offset w29, -16
	str	x0, [sp, #24]
	str	x1, [sp, #32]
	mov	x8, x0
	stur	x8, [x29, #-24]
	stur	x1, [x29, #-16]
	stur	x0, [x29, #-8]
Ltmp129:
	.loc	20 606 24 prologue_end
	b	LBB37_1
LBB37_1:
	.loc	20 0 24 is_stmt 0
	ldr	x1, [sp, #32]
	ldr	x0, [sp, #24]
	.loc	20 606 5
	bl	__ZN4core3ptr8metadata18from_raw_parts_mut17hafe880028f6d88aeE
	str	x0, [sp, #8]
	str	x1, [sp, #16]
	b	LBB37_2
LBB37_2:
	.loc	20 0 5
	ldr	x1, [sp, #16]
	ldr	x0, [sp, #8]
	.loc	20 607 2 is_stmt 1
	ldp	x29, x30, [sp, #64]
	add	sp, sp, #80
	ret
Ltmp130:
Lfunc_end37:
	.cfi_endproc

	.p2align	2
__ZN4core3ptr24slice_from_raw_parts_mut17h80f318fc18533a82E:
Lfunc_begin38:
	.loc	20 605 0
	.cfi_startproc
	sub	sp, sp, #80
	stp	x29, x30, [sp, #64]
	add	x29, sp, #64
	.cfi_def_cfa w29, 16
	.cfi_offset w30, -8
	.cfi_offset w29, -16
	str	x0, [sp, #24]
	str	x1, [sp, #32]
	mov	x8, x0
	stur	x8, [x29, #-24]
	stur	x1, [x29, #-16]
	stur	x0, [x29, #-8]
Ltmp131:
	.loc	20 606 24 prologue_end
	b	LBB38_1
LBB38_1:
	.loc	20 0 24 is_stmt 0
	ldr	x1, [sp, #32]
	ldr	x0, [sp, #24]
	.loc	20 606 5
	bl	__ZN4core3ptr8metadata18from_raw_parts_mut17h5c6cc00b457e467cE
	str	x0, [sp, #8]
	str	x1, [sp, #16]
	b	LBB38_2
LBB38_2:
	.loc	20 0 5
	ldr	x1, [sp, #16]
	ldr	x0, [sp, #8]
	.loc	20 607 2 is_stmt 1
	ldp	x29, x30, [sp, #64]
	add	sp, sp, #80
	ret
Ltmp132:
Lfunc_end38:
	.cfi_endproc

	.p2align	2
__ZN4core3ptr30drop_in_place$LT$$RF$usize$GT$17h4f0c1c76d0e94d8eE:
Lfunc_begin39:
	.loc	20 448 0
	.cfi_startproc
	sub	sp, sp, #16
	.cfi_def_cfa_offset 16
	str	x0, [sp, #8]
Ltmp134:
	.loc	20 448 1 prologue_end
	add	sp, sp, #16
	ret
Ltmp135:
Lfunc_end39:
	.cfi_endproc

	.p2align	2
__ZN4core3ptr4read17h10bb51335b2f53f2E:
Lfunc_begin40:
	.loc	20 970 0
	.cfi_startproc
	sub	sp, sp, #64
	.cfi_def_cfa_offset 64
	str	x0, [sp, #16]
	str	x0, [sp, #32]
Ltmp137:
	.loc	15 322 6 prologue_end
	ldr	w8, [sp, #56]
Ltmp138:
	.loc	20 978 19
	str	w8, [sp, #28]
	b	LBB40_1
LBB40_1:
	.loc	20 0 19 is_stmt 0
	add	x8, sp, #28
	str	x8, [sp, #40]
Ltmp139:
	.loc	20 986 34 is_stmt 1
	b	LBB40_2
LBB40_2:
	.loc	20 0 34 is_stmt 0
	ldr	x8, [sp, #16]
	.loc	20 986 9
	ldr	w8, [x8]
	str	w8, [sp, #28]
	.loc	20 987 9 is_stmt 1
	ldr	w8, [sp, #28]
	str	w8, [sp, #12]
	str	w8, [sp, #52]
	str	w8, [sp, #60]
	b	LBB40_3
Ltmp140:
LBB40_3:
	.loc	20 0 9 is_stmt 0
	ldr	w0, [sp, #12]
	.loc	20 989 2 is_stmt 1
	add	sp, sp, #64
	ret
Ltmp141:
Lfunc_end40:
	.cfi_endproc

	.p2align	2
__ZN4core3ptr4read17h71423e98d00635bcE:
Lfunc_begin41:
	.loc	20 970 0
	.cfi_startproc
	sub	sp, sp, #32
	.cfi_def_cfa_offset 32
	str	x0, [sp, #8]
Ltmp143:
	.loc	20 978 19 prologue_end
	b	LBB41_1
LBB41_1:
	.loc	20 0 19 is_stmt 0
	add	x8, sp, #7
	str	x8, [sp, #16]
Ltmp144:
	.loc	20 986 34 is_stmt 1
	b	LBB41_2
LBB41_2:
	.loc	20 987 9
	b	LBB41_3
Ltmp145:
LBB41_3:
	.loc	20 989 2
	add	sp, sp, #32
	ret
Ltmp146:
Lfunc_end41:
	.cfi_endproc

	.p2align	2
__ZN4core3ptr54drop_in_place$LT$alloc..raw_vec..RawVec$LT$i32$GT$$GT$17h6a2b501fa7b69bf9E:
Lfunc_begin42:
	.loc	20 448 0
	.cfi_startproc
	sub	sp, sp, #32
	stp	x29, x30, [sp, #16]
	add	x29, sp, #16
	.cfi_def_cfa w29, 16
	.cfi_offset w30, -8
	.cfi_offset w29, -16
	mov	x8, x0
	str	x8, [sp, #8]
Ltmp147:
	.loc	20 448 1 prologue_end
	bl	__ZN77_$LT$alloc..raw_vec..RawVec$LT$T$C$A$GT$$u20$as$u20$core..ops..drop..Drop$GT$4drop17h96f6daed4c590883E
	b	LBB42_1
LBB42_1:
	ldp	x29, x30, [sp, #16]
	add	sp, sp, #32
	ret
Ltmp148:
Lfunc_end42:
	.cfi_endproc

	.p2align	2
__ZN4core3ptr58drop_in_place$LT$$RF$core..option..Option$LT$usize$GT$$GT$17h6d815e00e9f9c26bE:
Lfunc_begin43:
	.loc	20 448 0
	.cfi_startproc
	sub	sp, sp, #16
	.cfi_def_cfa_offset 16
	str	x0, [sp, #8]
Ltmp150:
	.loc	20 448 1 prologue_end
	add	sp, sp, #16
	ret
Ltmp151:
Lfunc_end43:
	.cfi_endproc

	.p2align	2
__ZN4core3ptr59drop_in_place$LT$alloc..boxed..Box$LT$$u5b$i32$u5d$$GT$$GT$17he3c5f434e4a62e5cE:
Lfunc_begin44:
	.loc	20 448 0
	.cfi_startproc
	sub	sp, sp, #48
	stp	x29, x30, [sp, #32]
	add	x29, sp, #32
	.cfi_def_cfa w29, 16
	.cfi_offset w30, -8
	.cfi_offset w29, -16
	str	x0, [sp]
	str	x0, [sp, #8]
Ltmp152:
	.loc	20 448 1 prologue_end
	b	LBB44_1
LBB44_1:
	.loc	20 0 1 is_stmt 0
	ldr	x8, [sp]
	.loc	20 448 1
	ldr	x0, [x8]
	ldr	x1, [x8, #8]
	bl	__ZN5alloc5alloc8box_free17h3c187b984de7016aE
	b	LBB44_2
LBB44_2:
	ldp	x29, x30, [sp, #32]
	add	sp, sp, #48
	ret
Ltmp153:
Lfunc_end44:
	.cfi_endproc

	.p2align	2
__ZN4core3ptr63drop_in_place$LT$alloc..vec..into_iter..IntoIter$LT$i32$GT$$GT$17h0063b9581b356265E:
Lfunc_begin45:
	.loc	20 448 0 is_stmt 1
	.cfi_startproc
	sub	sp, sp, #32
	stp	x29, x30, [sp, #16]
	add	x29, sp, #16
	.cfi_def_cfa w29, 16
	.cfi_offset w30, -8
	.cfi_offset w29, -16
	mov	x8, x0
	str	x8, [sp, #8]
Ltmp154:
	.loc	20 448 1 prologue_end
	bl	__ZN86_$LT$alloc..vec..into_iter..IntoIter$LT$T$C$A$GT$$u20$as$u20$core..ops..drop..Drop$GT$4drop17h9dc37c56584f6ed0E
	b	LBB45_1
LBB45_1:
	ldp	x29, x30, [sp, #16]
	add	sp, sp, #32
	ret
Ltmp155:
Lfunc_end45:
	.cfi_endproc

	.p2align	2
__ZN4core3ptr6unique15Unique$LT$T$GT$13new_unchecked17h7328a3d34fc6fcacE:
Lfunc_begin46:
	.file	21 "/rustc/fe5b13d681f25ee6474be29d748c65adcd91f69e/library/core/src/ptr/unique.rs"
	.loc	21 88 0
	.cfi_startproc
	sub	sp, sp, #16
	.cfi_def_cfa_offset 16
	mov	x8, x0
	str	x8, [sp, #8]
Ltmp157:
	.loc	21 90 18 prologue_end
	str	x0, [sp]
	.loc	21 91 6
	ldr	x0, [sp]
	add	sp, sp, #16
	ret
Ltmp158:
Lfunc_end46:
	.cfi_endproc

	.p2align	2
__ZN4core3ptr6unique15Unique$LT$T$GT$13new_unchecked17hb49593dce6e59f33E:
Lfunc_begin47:
	.loc	21 88 0
	.cfi_startproc
	sub	sp, sp, #16
	.cfi_def_cfa_offset 16
	mov	x8, x0
	str	x8, [sp, #8]
Ltmp160:
	.loc	21 90 18 prologue_end
	str	x0, [sp]
	.loc	21 91 6
	ldr	x0, [sp]
	add	sp, sp, #16
	ret
Ltmp161:
Lfunc_end47:
	.cfi_endproc

	.p2align	2
__ZN4core3ptr6unique15Unique$LT$T$GT$4cast17h2e3fc32b925a329aE:
Lfunc_begin48:
	.loc	21 140 0
	.cfi_startproc
	sub	sp, sp, #48
	stp	x29, x30, [sp, #32]
	add	x29, sp, #32
	.cfi_def_cfa w29, 16
	.cfi_offset w30, -8
	.cfi_offset w29, -16
	mov	x8, x0
	stur	x8, [x29, #-8]
Ltmp162:
	.loc	21 144 40 prologue_end
	bl	__ZN4core3ptr6unique15Unique$LT$T$GT$6as_ptr17h89e4603a74c0a5a6E
	str	x0, [sp, #16]
	b	LBB48_1
LBB48_1:
	.loc	21 0 40 is_stmt 0
	ldr	x0, [sp, #16]
	.loc	21 144 18
	bl	__ZN4core3ptr6unique15Unique$LT$T$GT$13new_unchecked17h7328a3d34fc6fcacE
	str	x0, [sp, #8]
	b	LBB48_2
LBB48_2:
	.loc	21 0 18
	ldr	x0, [sp, #8]
	.loc	21 145 6 is_stmt 1
	ldp	x29, x30, [sp, #32]
	add	sp, sp, #48
	ret
Ltmp163:
Lfunc_end48:
	.cfi_endproc

	.p2align	2
__ZN4core3ptr6unique15Unique$LT$T$GT$4cast17hf5d2b92d9fa9f9b0E:
Lfunc_begin49:
	.loc	21 140 0
	.cfi_startproc
	sub	sp, sp, #48
	stp	x29, x30, [sp, #32]
	add	x29, sp, #32
	.cfi_def_cfa w29, 16
	.cfi_offset w30, -8
	.cfi_offset w29, -16
	mov	x8, x0
	str	x8, [sp, #16]
	str	x1, [sp, #24]
Ltmp164:
	.loc	21 144 40 prologue_end
	bl	__ZN4core3ptr6unique15Unique$LT$T$GT$6as_ptr17hf06c74cf27be7833E
	str	x0, [sp, #8]
	b	LBB49_1
LBB49_1:
	.loc	21 0 40 is_stmt 0
	ldr	x0, [sp, #8]
	.loc	21 144 18
	bl	__ZN4core3ptr6unique15Unique$LT$T$GT$13new_unchecked17h7328a3d34fc6fcacE
	str	x0, [sp]
	b	LBB49_2
LBB49_2:
	.loc	21 0 18
	ldr	x0, [sp]
	.loc	21 145 6 is_stmt 1
	ldp	x29, x30, [sp, #32]
	add	sp, sp, #48
	ret
Ltmp165:
Lfunc_end49:
	.cfi_endproc

	.p2align	2
__ZN4core3ptr6unique15Unique$LT$T$GT$6as_ptr17h4ba4e895ef0d60f0E:
Lfunc_begin50:
	.loc	21 107 0
	.cfi_startproc
	sub	sp, sp, #16
	.cfi_def_cfa_offset 16
	mov	x8, x0
	str	x8, [sp, #8]
Ltmp167:
	.loc	21 109 6 prologue_end
	add	sp, sp, #16
	ret
Ltmp168:
Lfunc_end50:
	.cfi_endproc

	.p2align	2
__ZN4core3ptr6unique15Unique$LT$T$GT$6as_ptr17h89e4603a74c0a5a6E:
Lfunc_begin51:
	.loc	21 107 0
	.cfi_startproc
	sub	sp, sp, #16
	.cfi_def_cfa_offset 16
	mov	x8, x0
	str	x8, [sp, #8]
Ltmp170:
	.loc	21 109 6 prologue_end
	add	sp, sp, #16
	ret
Ltmp171:
Lfunc_end51:
	.cfi_endproc

	.p2align	2
__ZN4core3ptr6unique15Unique$LT$T$GT$6as_ptr17hf06c74cf27be7833E:
Lfunc_begin52:
	.loc	21 107 0
	.cfi_startproc
	sub	sp, sp, #16
	.cfi_def_cfa_offset 16
	mov	x8, x0
	str	x8, [sp]
	str	x1, [sp, #8]
Ltmp173:
	.loc	21 109 6 prologue_end
	add	sp, sp, #16
	ret
Ltmp174:
Lfunc_end52:
	.cfi_endproc

	.p2align	2
__ZN4core3ptr6unique15Unique$LT$T$GT$6as_ref17hcae5a46f022ed30eE:
Lfunc_begin53:
	.loc	21 118 0
	.cfi_startproc
	sub	sp, sp, #48
	stp	x29, x30, [sp, #32]
	add	x29, sp, #32
	.cfi_def_cfa w29, 16
	.cfi_offset w30, -8
	.cfi_offset w29, -16
	mov	x8, x0
	mov	x0, x8
	stur	x0, [x29, #-8]
Ltmp175:
	.loc	21 121 20 prologue_end
	ldr	x0, [x8]
	ldr	x1, [x8, #8]
	bl	__ZN4core3ptr6unique15Unique$LT$T$GT$6as_ptr17hf06c74cf27be7833E
	str	x0, [sp, #8]
	str	x1, [sp, #16]
	b	LBB53_1
LBB53_1:
	.loc	21 0 20 is_stmt 0
	ldr	x1, [sp, #16]
	ldr	x0, [sp, #8]
	.loc	21 122 6 is_stmt 1
	ldp	x29, x30, [sp, #32]
	add	sp, sp, #48
	ret
Ltmp176:
Lfunc_end53:
	.cfi_endproc

	.p2align	2
__ZN4core3ptr7mut_ptr31_$LT$impl$u20$$BP$mut$u20$T$GT$13guaranteed_eq17hc973947d61e3ab18E:
Lfunc_begin54:
	.loc	16 617 0
	.cfi_startproc
	sub	sp, sp, #32
	.cfi_def_cfa_offset 32
	str	x0, [sp, #8]
	str	x1, [sp, #16]
Ltmp178:
	.loc	16 621 9 prologue_end
	subs	x8, x0, x1
	cset	w8, eq
	and	w8, w8, #0x1
	strb	w8, [sp, #31]
	ldrb	w8, [sp, #31]
	str	w8, [sp, #4]
	b	LBB54_1
LBB54_1:
	.loc	16 0 9 is_stmt 0
	ldr	w8, [sp, #4]
	.loc	16 622 6 is_stmt 1
	and	w0, w8, #0x1
	add	sp, sp, #32
	ret
Ltmp179:
Lfunc_end54:
	.cfi_endproc

	.p2align	2
__ZN4core3ptr7mut_ptr31_$LT$impl$u20$$BP$mut$u20$T$GT$7is_null17hbb6ddee3443f1797E:
Lfunc_begin55:
	.loc	16 36 0
	.cfi_startproc
	sub	sp, sp, #48
	stp	x29, x30, [sp, #32]
	add	x29, sp, #32
	.cfi_def_cfa w29, 16
	.cfi_offset w30, -8
	.cfi_offset w29, -16
	str	x0, [sp, #8]
	str	x0, [sp, #16]
	stur	xzr, [x29, #-8]
Ltmp180:
	.loc	16 39 41 prologue_end
	b	LBB55_1
LBB55_1:
	.loc	16 0 41 is_stmt 0
	ldr	x0, [sp, #8]
	mov	x1, #0
	.loc	16 39 9
	bl	__ZN4core3ptr7mut_ptr31_$LT$impl$u20$$BP$mut$u20$T$GT$13guaranteed_eq17hc973947d61e3ab18E
	str	w0, [sp, #4]
	b	LBB55_2
LBB55_2:
	.loc	16 0 9
	ldr	w8, [sp, #4]
	.loc	16 40 6 is_stmt 1
	and	w0, w8, #0x1
	ldp	x29, x30, [sp, #32]
	add	sp, sp, #48
	ret
Ltmp181:
Lfunc_end55:
	.cfi_endproc

	.p2align	2
__ZN4core3ptr7mut_ptr31_$LT$impl$u20$$BP$mut$u20$T$GT$7is_null17hf9587e16d23a1284E:
Lfunc_begin56:
	.loc	16 36 0
	.cfi_startproc
	sub	sp, sp, #48
	stp	x29, x30, [sp, #32]
	add	x29, sp, #32
	.cfi_def_cfa w29, 16
	.cfi_offset w30, -8
	.cfi_offset w29, -16
	str	x0, [sp, #8]
	str	x0, [sp, #16]
	stur	xzr, [x29, #-8]
Ltmp182:
	.loc	16 39 41 prologue_end
	b	LBB56_1
LBB56_1:
	.loc	16 0 41 is_stmt 0
	ldr	x0, [sp, #8]
	mov	x1, #0
	.loc	16 39 9
	bl	__ZN4core3ptr7mut_ptr31_$LT$impl$u20$$BP$mut$u20$T$GT$13guaranteed_eq17hc973947d61e3ab18E
	str	w0, [sp, #4]
	b	LBB56_2
LBB56_2:
	.loc	16 0 9
	ldr	w8, [sp, #4]
	.loc	16 40 6 is_stmt 1
	and	w0, w8, #0x1
	ldp	x29, x30, [sp, #32]
	add	sp, sp, #48
	ret
Ltmp183:
Lfunc_end56:
	.cfi_endproc

	.p2align	2
__ZN4core3ptr85drop_in_place$LT$std..rt..lang_start$LT$$LP$$RP$$GT$..$u7b$$u7b$closure$u7d$$u7d$$GT$17h18a753724c29f32bE:
Lfunc_begin57:
	.loc	20 448 0
	.cfi_startproc
	sub	sp, sp, #16
	.cfi_def_cfa_offset 16
	str	x0, [sp, #8]
Ltmp185:
	.loc	20 448 1 prologue_end
	add	sp, sp, #16
	ret
Ltmp186:
Lfunc_end57:
	.cfi_endproc

	.p2align	2
__ZN4core3ptr8metadata18from_raw_parts_mut17h5c6cc00b457e467cE:
Lfunc_begin58:
	.file	22 "/rustc/fe5b13d681f25ee6474be29d748c65adcd91f69e/library/core/src/ptr/metadata.rs"
	.loc	22 127 0
	.cfi_startproc
	sub	sp, sp, #48
	.cfi_def_cfa_offset 48
	mov	x8, x0
	str	x8, [sp, #32]
	str	x1, [sp, #40]
Ltmp188:
	.loc	22 134 36 prologue_end
	str	x0, [sp, #16]
	str	x1, [sp, #24]
	.loc	22 134 14 is_stmt 0
	ldr	x9, [sp, #16]
	ldr	x8, [sp, #24]
	str	x9, [sp]
	str	x8, [sp, #8]
	ldr	x0, [sp]
	ldr	x1, [sp, #8]
	.loc	22 135 2 is_stmt 1
	add	sp, sp, #48
	ret
Ltmp189:
Lfunc_end58:
	.cfi_endproc

	.p2align	2
__ZN4core3ptr8metadata18from_raw_parts_mut17hafe880028f6d88aeE:
Lfunc_begin59:
	.loc	22 127 0
	.cfi_startproc
	sub	sp, sp, #48
	.cfi_def_cfa_offset 48
	mov	x8, x0
	str	x8, [sp, #32]
	str	x1, [sp, #40]
Ltmp191:
	.loc	22 134 36 prologue_end
	str	x0, [sp, #16]
	str	x1, [sp, #24]
	.loc	22 134 14 is_stmt 0
	ldr	x9, [sp, #16]
	ldr	x8, [sp, #24]
	str	x9, [sp]
	str	x8, [sp, #8]
	ldr	x0, [sp]
	ldr	x1, [sp, #8]
	.loc	22 135 2 is_stmt 1
	add	sp, sp, #48
	ret
Ltmp192:
Lfunc_end59:
	.cfi_endproc

	.p2align	2
__ZN4core3ptr8non_null16NonNull$LT$T$GT$13new_unchecked17h795ac2cfc6825a06E:
Lfunc_begin60:
	.loc	5 195 0
	.cfi_startproc
	sub	sp, sp, #16
	.cfi_def_cfa_offset 16
	mov	x8, x0
	str	x8, [sp, #8]
Ltmp194:
	.loc	5 197 18 prologue_end
	str	x0, [sp]
	.loc	5 198 6
	ldr	x0, [sp]
	add	sp, sp, #16
	ret
Ltmp195:
Lfunc_end60:
	.cfi_endproc

	.p2align	2
__ZN4core3ptr8non_null16NonNull$LT$T$GT$13new_unchecked17he2584b8d3abe8d36E:
Lfunc_begin61:
	.loc	5 195 0
	.cfi_startproc
	sub	sp, sp, #16
	.cfi_def_cfa_offset 16
	mov	x8, x0
	str	x8, [sp, #8]
Ltmp197:
	.loc	5 197 18 prologue_end
	str	x0, [sp]
	.loc	5 198 6
	ldr	x0, [sp]
	add	sp, sp, #16
	ret
Ltmp198:
Lfunc_end61:
	.cfi_endproc

	.p2align	2
__ZN4core3ptr8non_null16NonNull$LT$T$GT$13new_unchecked17hfaacfe9796796b5aE:
Lfunc_begin62:
	.loc	5 195 0
	.cfi_startproc
	sub	sp, sp, #32
	.cfi_def_cfa_offset 32
	mov	x8, x0
	str	x8, [sp, #16]
	str	x1, [sp, #24]
Ltmp200:
	.loc	5 197 18 prologue_end
	str	x0, [sp]
	str	x1, [sp, #8]
	.loc	5 198 6
	ldr	x0, [sp]
	ldr	x1, [sp, #8]
	add	sp, sp, #32
	ret
Ltmp201:
Lfunc_end62:
	.cfi_endproc

	.p2align	2
__ZN4core3ptr8non_null16NonNull$LT$T$GT$3new17hd5d622305015032aE:
Lfunc_begin63:
	.loc	5 217 0
	.cfi_startproc
	sub	sp, sp, #64
	stp	x29, x30, [sp, #48]
	add	x29, sp, #48
	.cfi_def_cfa w29, 16
	.cfi_offset w30, -8
	.cfi_offset w29, -16
	str	x0, [sp, #16]
	mov	x8, x0
	stur	x8, [x29, #-8]
Ltmp202:
	.loc	5 218 13 prologue_end
	bl	__ZN4core3ptr7mut_ptr31_$LT$impl$u20$$BP$mut$u20$T$GT$7is_null17hf9587e16d23a1284E
	stur	w0, [x29, #-20]
	b	LBB63_1
LBB63_1:
	.loc	5 0 13 is_stmt 0
	ldur	w8, [x29, #-20]
	.loc	5 218 12
	tbz	w8, #0, LBB63_3
	b	LBB63_2
LBB63_2:
	.loc	5 222 13 is_stmt 1
	stur	xzr, [x29, #-16]
	stur	xzr, [x29, #-16]
	.loc	5 218 9
	b	LBB63_5
LBB63_3:
	.loc	5 0 9 is_stmt 0
	ldr	x0, [sp, #16]
	.loc	5 220 27 is_stmt 1
	bl	__ZN4core3ptr8non_null16NonNull$LT$T$GT$13new_unchecked17h795ac2cfc6825a06E
	str	x0, [sp, #8]
	b	LBB63_4
LBB63_4:
	.loc	5 0 27 is_stmt 0
	ldr	x8, [sp, #8]
	.loc	5 220 13
	stur	x8, [x29, #-16]
	.loc	5 218 9 is_stmt 1
	b	LBB63_5
LBB63_5:
	.loc	5 224 6
	ldur	x0, [x29, #-16]
	ldp	x29, x30, [sp, #48]
	add	sp, sp, #64
	ret
Ltmp203:
Lfunc_end63:
	.cfi_endproc

	.p2align	2
__ZN4core3ptr8non_null16NonNull$LT$T$GT$6as_ptr17h0d1801ae608ed0d5E:
Lfunc_begin64:
	.loc	5 325 0
	.cfi_startproc
	sub	sp, sp, #16
	.cfi_def_cfa_offset 16
	mov	x8, x0
	str	x8, [sp, #8]
Ltmp205:
	.loc	5 327 6 prologue_end
	add	sp, sp, #16
	ret
Ltmp206:
Lfunc_end64:
	.cfi_endproc

	.p2align	2
__ZN4core3ptr8non_null16NonNull$LT$T$GT$6as_ptr17h218d60a130d11f96E:
Lfunc_begin65:
	.loc	5 325 0
	.cfi_startproc
	sub	sp, sp, #16
	.cfi_def_cfa_offset 16
	mov	x8, x0
	str	x8, [sp]
	str	x1, [sp, #8]
Ltmp208:
	.loc	5 327 6 prologue_end
	add	sp, sp, #16
	ret
Ltmp209:
Lfunc_end65:
	.cfi_endproc

	.p2align	2
__ZN4core3ptr8non_null16NonNull$LT$T$GT$6as_ptr17h45cf7d5b7c31af35E:
Lfunc_begin66:
	.loc	5 325 0
	.cfi_startproc
	sub	sp, sp, #16
	.cfi_def_cfa_offset 16
	mov	x8, x0
	str	x8, [sp, #8]
Ltmp211:
	.loc	5 327 6 prologue_end
	add	sp, sp, #16
	ret
Ltmp212:
Lfunc_end66:
	.cfi_endproc

	.p2align	2
__ZN4core3ptr8non_null26NonNull$LT$$u5b$T$u5d$$GT$10as_mut_ptr17hf892274cfefc6403E:
Lfunc_begin67:
	.loc	5 546 0
	.cfi_startproc
	sub	sp, sp, #48
	stp	x29, x30, [sp, #32]
	add	x29, sp, #32
	.cfi_def_cfa w29, 16
	.cfi_offset w30, -8
	.cfi_offset w29, -16
	mov	x8, x0
	str	x8, [sp, #16]
	str	x1, [sp, #24]
Ltmp213:
	.loc	5 547 9 prologue_end
	bl	__ZN4core3ptr8non_null26NonNull$LT$$u5b$T$u5d$$GT$15as_non_null_ptr17h3519dd0deea8b343E
	str	x0, [sp, #8]
	b	LBB67_1
LBB67_1:
	.loc	5 0 9 is_stmt 0
	ldr	x0, [sp, #8]
	.loc	5 547 9
	bl	__ZN4core3ptr8non_null16NonNull$LT$T$GT$6as_ptr17h0d1801ae608ed0d5E
	str	x0, [sp]
	b	LBB67_2
LBB67_2:
	.loc	5 0 9
	ldr	x0, [sp]
	.loc	5 548 6 is_stmt 1
	ldp	x29, x30, [sp, #32]
	add	sp, sp, #48
	ret
Ltmp214:
Lfunc_end67:
	.cfi_endproc

	.p2align	2
__ZN4core3ptr8non_null26NonNull$LT$$u5b$T$u5d$$GT$15as_non_null_ptr17h3519dd0deea8b343E:
Lfunc_begin68:
	.loc	5 526 0
	.cfi_startproc
	sub	sp, sp, #80
	stp	x29, x30, [sp, #64]
	add	x29, sp, #64
	.cfi_def_cfa w29, 16
	.cfi_offset w30, -8
	.cfi_offset w29, -16
	mov	x8, x0
	str	x8, [sp, #32]
	str	x1, [sp, #40]
Ltmp215:
	.loc	5 528 41 prologue_end
	bl	__ZN4core3ptr8non_null16NonNull$LT$T$GT$6as_ptr17h218d60a130d11f96E
	str	x0, [sp, #16]
	str	x1, [sp, #24]
	b	LBB68_1
LBB68_1:
	.loc	5 0 41 is_stmt 0
	ldr	x8, [sp, #24]
	ldr	x9, [sp, #16]
	stur	x9, [x29, #-16]
	stur	x8, [x29, #-8]
	.loc	5 528 41
	b	LBB68_2
LBB68_2:
	.loc	5 0 41
	ldr	x0, [sp, #16]
	.loc	5 528 18
	bl	__ZN4core3ptr8non_null16NonNull$LT$T$GT$13new_unchecked17h795ac2cfc6825a06E
	str	x0, [sp, #8]
	b	LBB68_3
LBB68_3:
	.loc	5 0 18
	ldr	x0, [sp, #8]
	.loc	5 529 6 is_stmt 1
	ldp	x29, x30, [sp, #64]
	add	sp, sp, #80
	ret
Ltmp216:
Lfunc_end68:
	.cfi_endproc

	.p2align	2
__ZN4core3ptr8non_null26NonNull$LT$$u5b$T$u5d$$GT$20slice_from_raw_parts17h64b095306ab20ecfE:
Lfunc_begin69:
	.loc	5 482 0
	.cfi_startproc
	sub	sp, sp, #80
	stp	x29, x30, [sp, #64]
	add	x29, sp, #64
	.cfi_def_cfa w29, 16
	.cfi_offset w30, -8
	.cfi_offset w29, -16
	str	x1, [sp, #32]
	mov	x8, x0
	stur	x8, [x29, #-16]
	stur	x1, [x29, #-8]
Ltmp217:
	.loc	5 484 70 prologue_end
	bl	__ZN4core3ptr8non_null16NonNull$LT$T$GT$6as_ptr17h0d1801ae608ed0d5E
	stur	x0, [x29, #-24]
	b	LBB69_1
LBB69_1:
	.loc	5 0 70 is_stmt 0
	ldr	x1, [sp, #32]
	ldur	x0, [x29, #-24]
	.loc	5 484 38
	bl	__ZN4core3ptr24slice_from_raw_parts_mut17h5d122423e0f092baE
	str	x0, [sp, #16]
	str	x1, [sp, #24]
	b	LBB69_2
LBB69_2:
	.loc	5 0 38
	ldr	x1, [sp, #24]
	ldr	x0, [sp, #16]
	.loc	5 484 18
	bl	__ZN4core3ptr8non_null16NonNull$LT$T$GT$13new_unchecked17hfaacfe9796796b5aE
	str	x0, [sp]
	str	x1, [sp, #8]
	b	LBB69_3
LBB69_3:
	.loc	5 0 18
	ldr	x1, [sp, #8]
	ldr	x0, [sp]
	.loc	5 485 6 is_stmt 1
	ldp	x29, x30, [sp, #64]
	add	sp, sp, #80
	ret
Ltmp218:
Lfunc_end69:
	.cfi_endproc

	.p2align	2
__ZN4core3ptr9const_ptr33_$LT$impl$u20$$BP$const$u20$T$GT$11offset_from17h2fa9bc72937b6f88E:
Lfunc_begin70:
	.loc	2 561 0
	.cfi_startproc
	sub	sp, sp, #80
	stp	x29, x30, [sp, #64]
	add	x29, sp, #64
	.cfi_def_cfa w29, 16
	.cfi_offset w30, -8
	.cfi_offset w29, -16
	str	x0, [sp, #8]
	str	x1, [sp, #16]
	str	x0, [sp, #32]
	stur	x1, [x29, #-24]
	mov	w8, #4
Ltmp219:
	.loc	2 565 28 prologue_end
	stur	x8, [x29, #-16]
	b	LBB70_1
LBB70_1:
	.loc	2 0 28 is_stmt 0
	mov	x8, #0
Ltmp220:
	.loc	2 566 17 is_stmt 1
	subs	x8, x8, #4
	b.lo	LBB70_3
	b	LBB70_2
LBB70_2:
	strb	wzr, [sp, #31]
	b	LBB70_4
LBB70_3:
	.loc	2 0 17 is_stmt 0
	mov	x9, #9223372036854775807
	mov	w8, #4
	.loc	2 566 37
	subs	x8, x8, x9
	cset	w8, ls
	.loc	2 566 17
	and	w8, w8, #0x1
	strb	w8, [sp, #31]
	b	LBB70_4
LBB70_4:
	.loc	2 566 9
	ldrb	w8, [sp, #31]
	tbz	w8, #0, LBB70_6
	b	LBB70_5
LBB70_5:
	.loc	2 0 9
	ldr	x8, [sp, #8]
	ldr	x9, [sp, #16]
	.loc	2 568 18 is_stmt 1
	subs	x8, x8, x9
	mov	w9, #4
	sdiv	x8, x8, x9
	stur	x8, [x29, #-8]
	ldur	x8, [x29, #-8]
	str	x8, [sp]
	b	LBB70_7
LBB70_6:
	.loc	2 0 0 is_stmt 0
	adrp	x0, l___unnamed_7@PAGE
	add	x0, x0, l___unnamed_7@PAGEOFF
	mov	w8, #73
	mov	x1, x8
	adrp	x2, l___unnamed_8@PAGE
	add	x2, x2, l___unnamed_8@PAGEOFF
	.loc	2 566 9 is_stmt 1
	bl	__ZN4core9panicking5panic17ha94a579c0309d35aE
Ltmp221:
LBB70_7:
	.loc	2 0 9 is_stmt 0
	ldr	x0, [sp]
	.loc	2 569 6 is_stmt 1
	ldp	x29, x30, [sp, #64]
	add	sp, sp, #80
	ret
Ltmp222:
Lfunc_end70:
	.cfi_endproc

	.p2align	2
__ZN4core3ptr9const_ptr33_$LT$impl$u20$$BP$const$u20$T$GT$4addr17h825229548f8cb5cdE:
Lfunc_begin71:
	.loc	2 170 0
	.cfi_startproc
	sub	sp, sp, #16
	.cfi_def_cfa_offset 16
	str	x0, [sp, #8]
Ltmp224:
	.loc	2 176 6 prologue_end
	add	sp, sp, #16
	ret
Ltmp225:
Lfunc_end71:
	.cfi_endproc

	.p2align	2
__ZN4core4hint21unreachable_unchecked17he60e6c7e1b560b63E:
Lfunc_begin72:
	.file	23 "/rustc/fe5b13d681f25ee6474be29d748c65adcd91f69e/library/core/src/hint.rs"
	.loc	23 48 0
	.cfi_startproc
	.loc	23 51 14 prologue_end
	brk	#0x1
Ltmp226:
Lfunc_end72:
	.cfi_endproc

	.p2align	2
__ZN4core4hint9black_box17h9e10a1dfef701c76E:
Lfunc_begin73:
	.loc	23 173 0
	.cfi_startproc
	sub	sp, sp, #16
	.cfi_def_cfa_offset 16
Ltmp228:
	.loc	23 174 5 prologue_end
	; InlineAsm Start
	; InlineAsm End
	b	LBB73_1
LBB73_1:
	.loc	23 175 2
	add	sp, sp, #16
	ret
Ltmp229:
Lfunc_end73:
	.cfi_endproc

	.p2align	2
__ZN4core4iter6traits10exact_size17ExactSizeIterator3len17he19e985d52c0eb35E:
Lfunc_begin74:
	.file	24 "/rustc/fe5b13d681f25ee6474be29d748c65adcd91f69e/library/core/src/iter/traits/exact_size.rs"
	.loc	24 102 0
	.cfi_startproc
	sub	sp, sp, #224
	stp	x29, x30, [sp, #208]
	add	x29, sp, #208
	.cfi_def_cfa w29, 16
	.cfi_offset w30, -8
	.cfi_offset w29, -16
	mov	x8, x0
	stur	x8, [x29, #-32]
	add	x8, sp, #64
Ltmp230:
	.loc	24 103 30 prologue_end
	bl	__ZN103_$LT$alloc..vec..into_iter..IntoIter$LT$T$C$A$GT$$u20$as$u20$core..iter..traits..iterator..Iterator$GT$9size_hint17h3c4597cc2a4a1e6fE
	b	LBB74_1
LBB74_1:
	.loc	24 103 14 is_stmt 0
	ldr	x10, [sp, #64]
	str	x10, [sp, #16]
	stur	x10, [x29, #-24]
	.loc	24 103 21
	ldr	x11, [sp, #72]
	ldr	x8, [sp, #80]
	add	x9, sp, #48
	str	x11, [sp, #48]
	str	x8, [sp, #56]
	add	x8, sp, #104
Ltmp231:
	.loc	24 108 27 is_stmt 1
	str	x10, [sp, #112]
	mov	w10, #1
	str	x10, [sp, #104]
	.loc	24 108 9 is_stmt 0
	str	x9, [sp, #88]
	str	x8, [sp, #96]
	ldr	x0, [sp, #88]
	str	x0, [sp, #24]
	stur	x0, [x29, #-16]
	ldr	x1, [sp, #96]
	str	x1, [sp, #32]
	stur	x1, [x29, #-8]
Ltmp232:
	.loc	24 108 9
	bl	__ZN70_$LT$core..option..Option$LT$T$GT$$u20$as$u20$core..cmp..PartialEq$GT$2eq17hb5b0cbaa1da9cfbdE
	str	w0, [sp, #44]
	b	LBB74_2
LBB74_2:
	.loc	24 0 9
	ldr	w8, [sp, #44]
	.loc	24 108 9
	tbz	w8, #0, LBB74_4
	b	LBB74_3
Ltmp233:
LBB74_3:
	.loc	24 0 9
	ldr	x0, [sp, #16]
	.loc	24 110 6 is_stmt 1
	ldp	x29, x30, [sp, #208]
	add	sp, sp, #224
	ret
LBB74_4:
Ltmp234:
	.loc	24 108 9
	sturb	wzr, [x29, #-81]
	sub	x0, x29, #80
	str	x0, [sp, #8]
	mov	w1, #0
	str	w1, [sp, #4]
	mov	w8, #48
	mov	x2, x8
Ltmp235:
	.loc	24 108 9 is_stmt 0
	bl	_memset
	ldr	w0, [sp, #4]
	ldr	x1, [sp, #24]
	ldr	x2, [sp, #32]
	ldr	x3, [sp, #8]
	stur	xzr, [x29, #-80]
	.loc	24 0 0
	adrp	x4, l___unnamed_9@PAGE
	add	x4, x4, l___unnamed_9@PAGEOFF
	.loc	24 108 9
	bl	__ZN4core9panicking13assert_failed17hfa91b7f6b70ef48eE
Ltmp236:
Lfunc_end74:
	.cfi_endproc

	.p2align	2
__ZN4core5alloc6layout6Layout25from_size_align_unchecked17hb060e11bf7c04f95E:
Lfunc_begin75:
	.file	25 "/rustc/fe5b13d681f25ee6474be29d748c65adcd91f69e/library/core/src/alloc/layout.rs"
	.loc	25 99 0 is_stmt 1
	.cfi_startproc
	sub	sp, sp, #64
	stp	x29, x30, [sp, #48]
	add	x29, sp, #48
	.cfi_def_cfa w29, 16
	.cfi_offset w30, -8
	.cfi_offset w29, -16
	mov	x8, x0
	str	x8, [sp]
	mov	x0, x1
	stur	x8, [x29, #-16]
	stur	x0, [x29, #-8]
Ltmp237:
	.loc	25 101 48 prologue_end
	bl	__ZN4core3num7nonzero12NonZeroUsize13new_unchecked17h48fd1f29e8640488E
	str	x0, [sp, #8]
	b	LBB75_1
LBB75_1:
	.loc	25 0 48 is_stmt 0
	ldr	x8, [sp, #8]
	ldr	x9, [sp]
	.loc	25 101 9
	str	x9, [sp, #16]
	str	x8, [sp, #24]
	.loc	25 102 6 is_stmt 1
	ldr	x0, [sp, #16]
	ldr	x1, [sp, #24]
	ldp	x29, x30, [sp, #48]
	add	sp, sp, #64
	ret
Ltmp238:
Lfunc_end75:
	.cfi_endproc

	.p2align	2
__ZN4core5alloc6layout6Layout4size17hbbe2e2da24e79ffdE:
Lfunc_begin76:
	.loc	25 109 0
	.cfi_startproc
	sub	sp, sp, #16
	.cfi_def_cfa_offset 16
	mov	x8, x0
	str	x8, [sp, #8]
Ltmp240:
	.loc	25 110 9 prologue_end
	ldr	x0, [x0]
	.loc	25 111 6
	add	sp, sp, #16
	ret
Ltmp241:
Lfunc_end76:
	.cfi_endproc

	.p2align	2
__ZN4core5alloc6layout6Layout5align17hdff4d2cec999bc98E:
Lfunc_begin77:
	.loc	25 119 0
	.cfi_startproc
	sub	sp, sp, #32
	stp	x29, x30, [sp, #16]
	add	x29, sp, #16
	.cfi_def_cfa w29, 16
	.cfi_offset w30, -8
	.cfi_offset w29, -16
	mov	x8, x0
	str	x8, [sp, #8]
Ltmp242:
	.loc	25 120 9 prologue_end
	ldr	x0, [x0, #8]
	bl	__ZN4core3num7nonzero12NonZeroUsize3get17he0c1c3c01a7926ceE
	str	x0, [sp]
	b	LBB77_1
LBB77_1:
	.loc	25 0 9 is_stmt 0
	ldr	x0, [sp]
	.loc	25 121 6 is_stmt 1
	ldp	x29, x30, [sp, #16]
	add	sp, sp, #32
	ret
Ltmp243:
Lfunc_end77:
	.cfi_endproc

	.p2align	2
__ZN4core5alloc6layout6Layout5array17hbb0bbdf6dd885a92E:
Lfunc_begin78:
	.loc	25 407 0
	.cfi_startproc
	sub	sp, sp, #144
	stp	x29, x30, [sp, #128]
	add	x29, sp, #128
	.cfi_def_cfa w29, 16
	.cfi_offset w30, -8
	.cfi_offset w29, -16
	str	x0, [sp, #56]
	stur	x0, [x29, #-32]
Ltmp244:
	.loc	25 408 26 prologue_end
	b	LBB78_1
LBB78_1:
	.loc	25 0 26 is_stmt 0
	ldr	x1, [sp, #56]
	mov	w8, #4
	mov	x0, x8
	.loc	25 408 26
	bl	__ZN4core3num23_$LT$impl$u20$usize$GT$11checked_mul17h8f70a222f7f608d3E
	str	x0, [sp, #40]
	str	x1, [sp, #48]
	b	LBB78_2
LBB78_2:
	.loc	25 0 26
	ldr	x1, [sp, #48]
	ldr	x0, [sp, #40]
	.loc	25 408 26
	bl	__ZN4core6option15Option$LT$T$GT$5ok_or17h323f18c58e320cdbE
	str	x0, [sp, #24]
	str	x1, [sp, #32]
	b	LBB78_3
LBB78_3:
	.loc	25 0 26
	ldr	x1, [sp, #32]
	ldr	x0, [sp, #24]
	.loc	25 408 26
	bl	__ZN79_$LT$core..result..Result$LT$T$C$E$GT$$u20$as$u20$core..ops..try_trait..Try$GT$6branch17h4fa06f43c966c7ceE
	stur	x0, [x29, #-48]
	stur	x1, [x29, #-40]
	b	LBB78_4
LBB78_4:
	ldur	x8, [x29, #-48]
	cbz	x8, LBB78_7
	b	LBB78_5
LBB78_5:
	b	LBB78_8
LBB78_7:
	ldur	x8, [x29, #-40]
	str	x8, [sp, #16]
	stur	x8, [x29, #-16]
Ltmp245:
	.loc	25 408 26
	stur	x8, [x29, #-8]
Ltmp246:
	.loc	25 418 67 is_stmt 1
	b	LBB78_11
Ltmp247:
LBB78_8:
	.loc	25 0 0 is_stmt 0
	adrp	x0, l___unnamed_10@PAGE
	add	x0, x0, l___unnamed_10@PAGEOFF
	.loc	25 408 26 is_stmt 1
	bl	__ZN153_$LT$core..result..Result$LT$T$C$F$GT$$u20$as$u20$core..ops..try_trait..FromResidual$LT$core..result..Result$LT$core..convert..Infallible$C$E$GT$$GT$$GT$13from_residual17h63d9fc174dab68f1E
	str	x0, [sp, #64]
	str	x1, [sp, #72]
	b	LBB78_9
Ltmp248:
LBB78_9:
	.loc	25 419 6
	b	LBB78_10
LBB78_10:
	ldr	x0, [sp, #64]
	ldr	x1, [sp, #72]
	ldp	x29, x30, [sp, #128]
	add	sp, sp, #144
	ret
LBB78_11:
	.loc	25 0 6 is_stmt 0
	ldr	x0, [sp, #16]
	mov	w8, #4
	mov	x1, x8
Ltmp249:
	.loc	25 418 21 is_stmt 1
	bl	__ZN4core5alloc6layout6Layout25from_size_align_unchecked17hb060e11bf7c04f95E
	str	x0, [sp]
	str	x1, [sp, #8]
	b	LBB78_12
LBB78_12:
	.loc	25 0 21 is_stmt 0
	ldr	x8, [sp, #8]
	ldr	x9, [sp]
	.loc	25 418 9
	str	x9, [sp, #64]
	str	x8, [sp, #72]
Ltmp250:
	.loc	25 419 6 is_stmt 1
	b	LBB78_10
Ltmp251:
Lfunc_end78:
	.cfi_endproc

	.p2align	2
__ZN4core5alloc6layout6Layout8dangling17h93e907a399be1204E:
Lfunc_begin79:
	.loc	25 195 0
	.cfi_startproc
	sub	sp, sp, #64
	stp	x29, x30, [sp, #48]
	add	x29, sp, #48
	.cfi_def_cfa w29, 16
	.cfi_offset w30, -8
	.cfi_offset w29, -16
	mov	x8, x0
	stur	x8, [x29, #-16]
Ltmp252:
	.loc	25 197 71 prologue_end
	bl	__ZN4core5alloc6layout6Layout5align17hdff4d2cec999bc98E
	str	x0, [sp, #24]
	b	LBB79_1
LBB79_1:
	.loc	25 0 71 is_stmt 0
	ldr	x0, [sp, #24]
	stur	x0, [x29, #-8]
	str	x0, [sp, #16]
	.loc	25 197 41
	b	LBB79_2
LBB79_2:
	.loc	25 0 41
	ldr	x0, [sp, #16]
	.loc	25 197 18
	bl	__ZN4core3ptr8non_null16NonNull$LT$T$GT$13new_unchecked17h795ac2cfc6825a06E
	str	x0, [sp, #8]
	b	LBB79_3
LBB79_3:
	.loc	25 0 18
	ldr	x0, [sp, #8]
	.loc	25 198 6 is_stmt 1
	ldp	x29, x30, [sp, #48]
	add	sp, sp, #64
	ret
Ltmp253:
Lfunc_end79:
	.cfi_endproc

	.p2align	2
__ZN4core5slice29_$LT$impl$u20$$u5b$T$u5d$$GT$3len17hf982a02372ad5fb8E:
Lfunc_begin80:
	.file	26 "/rustc/fe5b13d681f25ee6474be29d748c65adcd91f69e/library/core/src/slice/mod.rs"
	.loc	26 130 0
	.cfi_startproc
	sub	sp, sp, #32
	.cfi_def_cfa_offset 32
	mov	x8, x0
	str	x8, [sp, #16]
	str	x1, [sp, #24]
Ltmp255:
	.loc	26 138 18 prologue_end
	str	x0, [sp]
	str	x1, [sp, #8]
	ldr	x0, [sp, #8]
	.loc	26 139 6
	add	sp, sp, #32
	ret
Ltmp256:
Lfunc_end80:
	.cfi_endproc

	.p2align	2
__ZN4core6option15Option$LT$T$GT$5ok_or17h323f18c58e320cdbE:
Lfunc_begin81:
	.file	27 "/rustc/fe5b13d681f25ee6474be29d748c65adcd91f69e/library/core/src/option.rs"
	.loc	27 1038 0
	.cfi_startproc
	sub	sp, sp, #48
	.cfi_def_cfa_offset 48
	str	x0, [sp]
	str	x1, [sp, #8]
Ltmp258:
	.loc	27 1042 15 prologue_end
	strb	wzr, [sp, #38]
	mov	w8, #1
	strb	w8, [sp, #38]
	ldr	x8, [sp]
	.loc	27 1042 9 is_stmt 0
	cbz	x8, LBB81_3
	b	LBB81_1
LBB81_1:
	b	LBB81_4
LBB81_3:
	.loc	27 1044 25 is_stmt 1
	strb	wzr, [sp, #38]
	mov	w8, #1
	.loc	27 1044 21 is_stmt 0
	str	x8, [sp, #16]
	.loc	27 1044 28
	b	LBB81_5
LBB81_4:
	.loc	27 1043 18 is_stmt 1
	ldr	x8, [sp, #8]
	str	x8, [sp, #40]
Ltmp259:
	.loc	27 1043 24 is_stmt 0
	str	x8, [sp, #24]
	str	xzr, [sp, #16]
Ltmp260:
	.loc	27 1043 28
	b	LBB81_5
LBB81_5:
	.loc	27 1046 5 is_stmt 1
	ldrb	w8, [sp, #38]
	tbnz	w8, #0, LBB81_7
	b	LBB81_6
LBB81_6:
	.loc	27 1046 6 is_stmt 0
	ldr	x0, [sp, #16]
	ldr	x1, [sp, #24]
	add	sp, sp, #48
	ret
LBB81_7:
	.loc	27 1046 5
	b	LBB81_6
Ltmp261:
Lfunc_end81:
	.cfi_endproc

	.p2align	2
__ZN4core6option15Option$LT$T$GT$5ok_or17hb13f6cd01eb39356E:
Lfunc_begin82:
	.loc	27 1038 0 is_stmt 1
	.cfi_startproc
	sub	sp, sp, #32
	.cfi_def_cfa_offset 32
	str	x0, [sp]
Ltmp263:
	.loc	27 1042 15 prologue_end
	strb	wzr, [sp, #22]
	mov	w8, #1
	strb	w8, [sp, #22]
	ldr	x8, [sp]
	subs	x8, x8, #0
	cset	x8, ne
	.loc	27 1042 9 is_stmt 0
	cbz	x8, LBB82_3
	b	LBB82_1
LBB82_1:
	b	LBB82_4
LBB82_3:
	.loc	27 1044 25 is_stmt 1
	strb	wzr, [sp, #22]
	.loc	27 1044 21 is_stmt 0
	str	xzr, [sp, #8]
	str	xzr, [sp, #8]
	.loc	27 1044 28
	b	LBB82_5
LBB82_4:
	.loc	27 1043 18 is_stmt 1
	ldr	x8, [sp]
	str	x8, [sp, #24]
Ltmp264:
	.loc	27 1043 24 is_stmt 0
	str	x8, [sp, #8]
Ltmp265:
	.loc	27 1043 28
	b	LBB82_5
LBB82_5:
	.loc	27 1046 5 is_stmt 1
	ldrb	w8, [sp, #22]
	tbnz	w8, #0, LBB82_7
	b	LBB82_6
LBB82_6:
	.loc	27 1046 6 is_stmt 0
	ldr	x0, [sp, #8]
	add	sp, sp, #32
	ret
LBB82_7:
	.loc	27 1046 5
	b	LBB82_6
Ltmp266:
Lfunc_end82:
	.cfi_endproc

	.p2align	2
__ZN4core6result19Result$LT$T$C$E$GT$16unwrap_unchecked17he54bf2c57bbd2c13E:
Lfunc_begin83:
	.loc	6 1491 0 is_stmt 1
	.cfi_startproc
	.cfi_personality 155, _rust_eh_personality
	.cfi_lsda 16, Lexception5
	sub	sp, sp, #96
	stp	x29, x30, [sp, #80]
	add	x29, sp, #80
	.cfi_def_cfa w29, 16
	.cfi_offset w30, -8
	.cfi_offset w29, -16
	str	x0, [sp, #24]
	str	x1, [sp, #32]
Ltmp270:
	.loc	6 1492 9 prologue_end
	sturb	wzr, [x29, #-33]
	mov	w8, #1
	sturb	w8, [x29, #-33]
	.loc	6 1493 15
	ldr	x9, [sp, #32]
	mov	x8, #0
	subs	x9, x9, #0
	csinc	x8, x8, xzr, ne
	.loc	6 1493 9 is_stmt 0
	cbz	x8, LBB83_3
	b	LBB83_1
LBB83_1:
	b	LBB83_4
LBB83_3:
	.loc	6 1494 16 is_stmt 1
	sturb	wzr, [x29, #-33]
	ldr	x9, [sp, #24]
	str	x9, [sp, #8]
	ldr	x8, [sp, #32]
	str	x8, [sp, #16]
	stur	x9, [x29, #-16]
	stur	x8, [x29, #-8]
	.loc	6 1498 5
	ldr	x9, [sp, #32]
	mov	x8, #0
	subs	x9, x9, #0
	csinc	x8, x8, xzr, ne
	cbz	x8, LBB83_12
	b	LBB83_13
LBB83_4:
Ltmp267:
	.loc	6 1496 32
	bl	__ZN4core4hint21unreachable_unchecked17he60e6c7e1b560b63E
Ltmp268:
	b	LBB83_7
LBB83_5:
	.loc	6 1498 5
	ldr	x9, [sp, #32]
	mov	x8, #0
	subs	x9, x9, #0
	csinc	x8, x8, xzr, ne
	cbz	x8, LBB83_8
	b	LBB83_9
LBB83_6:
Ltmp269:
	.loc	6 0 5 is_stmt 0
	mov	x8, x1
	stur	x0, [x29, #-32]
	stur	w8, [x29, #-24]
	b	LBB83_5
LBB83_7:
	brk	#0x1
LBB83_8:
	.loc	6 1498 5
	ldurb	w8, [x29, #-33]
	tbnz	w8, #0, LBB83_11
	b	LBB83_10
LBB83_9:
	b	LBB83_10
LBB83_10:
	.loc	6 1491 5 is_stmt 1
	ldur	x0, [x29, #-32]
	bl	__Unwind_Resume
LBB83_11:
	.loc	6 1498 5
	b	LBB83_10
LBB83_12:
	.loc	6 0 5 is_stmt 0
	ldr	x1, [sp, #16]
	ldr	x0, [sp, #8]
	.loc	6 1498 6
	ldp	x29, x30, [sp, #80]
	add	sp, sp, #96
	ret
LBB83_13:
	.loc	6 1498 5
	b	LBB83_12
Ltmp271:
Lfunc_end83:
	.cfi_endproc
	.section	__TEXT,__gcc_except_tab
	.p2align	2
GCC_except_table83:
Lexception5:
	.byte	255
	.byte	255
	.byte	1
	.uleb128 Lcst_end5-Lcst_begin5
Lcst_begin5:
	.uleb128 Ltmp267-Lfunc_begin83
	.uleb128 Ltmp268-Ltmp267
	.uleb128 Ltmp269-Lfunc_begin83
	.byte	0
	.uleb128 Ltmp268-Lfunc_begin83
	.uleb128 Lfunc_end83-Ltmp268
	.byte	0
	.byte	0
Lcst_end5:
	.p2align	2

	.section	__TEXT,__text,regular,pure_instructions
	.p2align	2
__ZN4core9panicking13assert_failed17hfa91b7f6b70ef48eE:
Lfunc_begin84:
	.file	28 "/rustc/fe5b13d681f25ee6474be29d748c65adcd91f69e/library/core/src/panicking.rs"
	.loc	28 172 0 is_stmt 1
	.cfi_startproc
	sub	sp, sp, #128
	stp	x29, x30, [sp, #112]
	add	x29, sp, #112
	.cfi_def_cfa w29, 16
	.cfi_offset w30, -8
	.cfi_offset w29, -16
	str	w0, [sp, #4]
	mov	x8, x1
	mov	x1, x3
	str	x4, [sp, #32]
	add	x9, sp, #40
	str	x9, [sp, #8]
	str	x8, [sp, #40]
	add	x8, sp, #48
	str	x8, [sp, #16]
	str	x2, [sp, #48]
	sturb	w0, [x29, #-1]
Ltmp272:
	add	x0, sp, #56
	str	x0, [sp, #24]
	mov	w8, #48
	mov	x2, x8
Ltmp273:
	.loc	28 182 46 prologue_end
	bl	_memcpy
Ltmp274:
	.loc	28 0 46 is_stmt 0
	ldr	w0, [sp, #4]
	ldr	x1, [sp, #8]
	ldr	x3, [sp, #16]
	ldr	x5, [sp, #24]
	ldr	x6, [sp, #32]
	adrp	x4, l___unnamed_2@PAGE
	add	x4, x4, l___unnamed_2@PAGEOFF
	.loc	28 182 5
	mov	x2, x4
	bl	__ZN4core9panicking19assert_failed_inner17he14f0813319041deE
Ltmp275:
Lfunc_end84:
	.cfi_endproc

	.p2align	2
__ZN50_$LT$T$u20$as$u20$core..convert..From$LT$T$GT$$GT$4from17h52e4b4ec9b4d5bddE:
Lfunc_begin85:
	.file	29 "/rustc/fe5b13d681f25ee6474be29d748c65adcd91f69e/library/core/src/convert/mod.rs"
	.loc	29 559 0 is_stmt 1
	.cfi_startproc
	sub	sp, sp, #16
	.cfi_def_cfa_offset 16
Ltmp277:
	.loc	29 561 6 prologue_end
	add	sp, sp, #16
	ret
Ltmp278:
Lfunc_end85:
	.cfi_endproc

	.p2align	2
__ZN50_$LT$T$u20$as$u20$core..convert..From$LT$T$GT$$GT$4from17hef0d6f25ae635eaeE:
Lfunc_begin86:
	.loc	29 559 0
	.cfi_startproc
	sub	sp, sp, #16
	.cfi_def_cfa_offset 16
Ltmp280:
	.loc	29 561 6 prologue_end
	add	sp, sp, #16
	ret
Ltmp281:
Lfunc_end86:
	.cfi_endproc

	.p2align	2
__ZN50_$LT$T$u20$as$u20$core..convert..Into$LT$U$GT$$GT$4into17h4c141a1d03322c7bE:
Lfunc_begin87:
	.loc	29 549 0
	.cfi_startproc
	sub	sp, sp, #32
	stp	x29, x30, [sp, #16]
	add	x29, sp, #16
	.cfi_def_cfa w29, 16
	.cfi_offset w30, -8
	.cfi_offset w29, -16
	mov	x8, x0
	str	x8, [sp, #8]
Ltmp282:
	.loc	29 550 9 prologue_end
	bl	__ZN119_$LT$core..ptr..non_null..NonNull$LT$T$GT$$u20$as$u20$core..convert..From$LT$core..ptr..unique..Unique$LT$T$GT$$GT$$GT$4from17h1a09c78b87d93efbE
	str	x0, [sp]
	b	LBB87_1
LBB87_1:
	.loc	29 0 9 is_stmt 0
	ldr	x0, [sp]
	.loc	29 551 6 is_stmt 1
	ldp	x29, x30, [sp, #16]
	add	sp, sp, #32
	ret
Ltmp283:
Lfunc_end87:
	.cfi_endproc

	.p2align	2
__ZN54_$LT$$LP$$RP$$u20$as$u20$std..process..Termination$GT$6report17h6b11e07ed6952585E:
Lfunc_begin88:
	.loc	10 2110 0
	.cfi_startproc
	sub	sp, sp, #32
	stp	x29, x30, [sp, #16]
	add	x29, sp, #16
	.cfi_def_cfa w29, 16
	.cfi_offset w30, -8
	.cfi_offset w29, -16
	mov	w0, #0
Ltmp284:
	.loc	10 2111 9 prologue_end
	bl	__ZN68_$LT$std..process..ExitCode$u20$as$u20$std..process..Termination$GT$6report17h9de07549f81021ccE
	str	w0, [sp, #8]
	b	LBB88_1
LBB88_1:
	.loc	10 0 9 is_stmt 0
	ldr	w0, [sp, #8]
	.loc	10 2112 6 is_stmt 1
	ldp	x29, x30, [sp, #16]
	add	sp, sp, #32
	ret
Ltmp285:
Lfunc_end88:
	.cfi_endproc

	.p2align	2
__ZN5alloc3vec16Vec$LT$T$C$A$GT$10as_mut_ptr17h0620d0c0a44beb59E:
Lfunc_begin89:
	.file	30 "/rustc/fe5b13d681f25ee6474be29d748c65adcd91f69e/library/alloc/src/vec/mod.rs"
	.loc	30 1171 0
	.cfi_startproc
	sub	sp, sp, #48
	stp	x29, x30, [sp, #32]
	add	x29, sp, #32
	.cfi_def_cfa w29, 16
	.cfi_offset w30, -8
	.cfi_offset w29, -16
	mov	x8, x0
	str	x8, [sp, #16]
Ltmp286:
	.loc	30 1174 19 prologue_end
	bl	__ZN5alloc7raw_vec19RawVec$LT$T$C$A$GT$3ptr17he061cf5c7f03c654E
	str	x0, [sp, #8]
	stur	x0, [x29, #-8]
	b	LBB89_1
LBB89_1:
	.loc	30 0 19 is_stmt 0
	ldr	x0, [sp, #8]
Ltmp287:
	.loc	30 1176 21 is_stmt 1
	bl	__ZN4core3ptr7mut_ptr31_$LT$impl$u20$$BP$mut$u20$T$GT$7is_null17hbb6ddee3443f1797E
	b	LBB89_2
LBB89_2:
	.loc	30 1176 13 is_stmt 0
	b	LBB89_3
Ltmp288:
LBB89_3:
	.loc	30 0 13
	ldr	x0, [sp, #8]
	.loc	30 1179 6 is_stmt 1
	ldp	x29, x30, [sp, #32]
	add	sp, sp, #48
	ret
Ltmp289:
Lfunc_end89:
	.cfi_endproc

	.p2align	2
__ZN5alloc3vec16Vec$LT$T$C$A$GT$17from_raw_parts_in17h47953c0636c1af1fE:
Lfunc_begin90:
	.loc	30 688 0
	.cfi_startproc
	sub	sp, sp, #80
	stp	x29, x30, [sp, #64]
	add	x29, sp, #64
	.cfi_def_cfa w29, 16
	.cfi_offset w30, -8
	.cfi_offset w29, -16
	str	x8, [sp]
	mov	x8, x1
	str	x8, [sp, #8]
	mov	x1, x2
	mov	x9, x0
	str	x9, [sp, #32]
	stur	x8, [x29, #-24]
	stur	x1, [x29, #-16]
Ltmp290:
	.loc	30 689 29 prologue_end
	bl	__ZN5alloc7raw_vec19RawVec$LT$T$C$A$GT$17from_raw_parts_in17h1eeb02e86b7d6d43E
	str	x0, [sp, #16]
	str	x1, [sp, #24]
	b	LBB90_1
LBB90_1:
	.loc	30 0 29 is_stmt 0
	ldr	x8, [sp, #8]
	ldr	x9, [sp]
	ldr	x10, [sp, #24]
	ldr	x11, [sp, #16]
	.loc	30 689 18
	str	x11, [x9]
	str	x10, [x9, #8]
	str	x8, [x9, #16]
	.loc	30 690 6 is_stmt 1
	ldp	x29, x30, [sp, #64]
	add	sp, sp, #80
	ret
Ltmp291:
Lfunc_end90:
	.cfi_endproc

	.p2align	2
__ZN5alloc3vec16Vec$LT$T$C$A$GT$3len17h15764ebfe82156bcE:
Lfunc_begin91:
	.loc	30 1898 0
	.cfi_startproc
	sub	sp, sp, #16
	.cfi_def_cfa_offset 16
	mov	x8, x0
	str	x8, [sp, #8]
Ltmp293:
	.loc	30 1899 9 prologue_end
	ldr	x0, [x0, #16]
	.loc	30 1900 6
	add	sp, sp, #16
	ret
Ltmp294:
Lfunc_end91:
	.cfi_endproc

	.p2align	2
__ZN5alloc3vec16Vec$LT$T$C$A$GT$9allocator17h35538dc3f00d0514E:
Lfunc_begin92:
	.loc	30 1184 0
	.cfi_startproc
	sub	sp, sp, #32
	stp	x29, x30, [sp, #16]
	add	x29, sp, #16
	.cfi_def_cfa w29, 16
	.cfi_offset w30, -8
	.cfi_offset w29, -16
	mov	x8, x0
	str	x8, [sp, #8]
Ltmp295:
	.loc	30 1185 9 prologue_end
	bl	__ZN5alloc7raw_vec19RawVec$LT$T$C$A$GT$9allocator17h1a78011624fe2d59E
	str	x0, [sp]
	b	LBB92_1
LBB92_1:
	.loc	30 0 9 is_stmt 0
	ldr	x0, [sp]
	.loc	30 1186 6 is_stmt 1
	ldp	x29, x30, [sp, #16]
	add	sp, sp, #32
	ret
Ltmp296:
Lfunc_end92:
	.cfi_endproc

	.p2align	2
__ZN5alloc3vec9into_iter21IntoIter$LT$T$C$A$GT$16as_raw_mut_slice17h0fb7677dab4cde05E:
Lfunc_begin93:
	.loc	1 92 0
	.cfi_startproc
	sub	sp, sp, #64
	stp	x29, x30, [sp, #48]
	add	x29, sp, #48
	.cfi_def_cfa w29, 16
	.cfi_offset w30, -8
	.cfi_offset w29, -16
	mov	x8, x0
	sub	x0, x29, #8
	stur	x8, [x29, #-8]
Ltmp297:
	.loc	1 93 39 prologue_end
	ldur	x8, [x29, #-8]
	ldr	x8, [x8, #16]
	str	x8, [sp, #24]
	.loc	1 93 59 is_stmt 0
	bl	__ZN83_$LT$$RF$mut$u20$I$u20$as$u20$core..iter..traits..exact_size..ExactSizeIterator$GT$3len17h3ce8c51627db0f46E
	stur	x0, [x29, #-16]
	b	LBB93_1
LBB93_1:
	.loc	1 0 59
	ldur	x1, [x29, #-16]
	ldr	x0, [sp, #24]
	.loc	1 93 9
	bl	__ZN4core3ptr24slice_from_raw_parts_mut17h80f318fc18533a82E
	str	x0, [sp, #8]
	str	x1, [sp, #16]
	b	LBB93_2
LBB93_2:
	.loc	1 0 9
	ldr	x1, [sp, #16]
	ldr	x0, [sp, #8]
	.loc	1 94 6 is_stmt 1
	ldp	x29, x30, [sp, #48]
	add	sp, sp, #64
	ret
Ltmp298:
Lfunc_end93:
	.cfi_endproc

	.p2align	2
__ZN5alloc5alloc12alloc_zeroed17h9fc9fc45689b0240E:
Lfunc_begin94:
	.file	31 "/rustc/fe5b13d681f25ee6474be29d748c65adcd91f69e/library/alloc/src/alloc.rs"
	.loc	31 159 0
	.cfi_startproc
	sub	sp, sp, #64
	stp	x29, x30, [sp, #48]
	add	x29, sp, #48
	.cfi_def_cfa w29, 16
	.cfi_offset w30, -8
	.cfi_offset w29, -16
	mov	x8, x0
	sub	x0, x29, #16
	stur	x8, [x29, #-16]
	stur	x1, [x29, #-8]
Ltmp299:
	.loc	31 160 34 prologue_end
	bl	__ZN4core5alloc6layout6Layout4size17hbbe2e2da24e79ffdE
	str	x0, [sp, #24]
	b	LBB94_1
LBB94_1:
	.loc	31 0 34 is_stmt 0
	sub	x0, x29, #16
	.loc	31 160 49
	bl	__ZN4core5alloc6layout6Layout5align17hdff4d2cec999bc98E
	str	x0, [sp, #16]
	b	LBB94_2
LBB94_2:
	.loc	31 0 49
	ldr	x1, [sp, #16]
	ldr	x0, [sp, #24]
	.loc	31 160 14
	bl	___rust_alloc_zeroed
	str	x0, [sp, #8]
	b	LBB94_3
LBB94_3:
	.loc	31 0 14
	ldr	x0, [sp, #8]
	.loc	31 161 2 is_stmt 1
	ldp	x29, x30, [sp, #48]
	add	sp, sp, #64
	ret
Ltmp300:
Lfunc_end94:
	.cfi_endproc

	.p2align	2
__ZN5alloc5alloc15exchange_malloc17h76714da59e4f6751E:
Lfunc_begin95:
	.loc	31 318 0
	.cfi_startproc
	sub	sp, sp, #112
	stp	x29, x30, [sp, #96]
	add	x29, sp, #96
	.cfi_def_cfa w29, 16
	.cfi_offset w30, -8
	.cfi_offset w29, -16
	str	x0, [sp, #48]
	stur	x1, [x29, #-40]
Ltmp301:
	.loc	31 319 27 prologue_end
	bl	__ZN4core5alloc6layout6Layout25from_size_align_unchecked17hb060e11bf7c04f95E
	str	x0, [sp, #16]
	str	x1, [sp, #24]
	stur	x0, [x29, #-32]
	stur	x1, [x29, #-24]
	b	LBB95_1
LBB95_1:
	.loc	31 0 27 is_stmt 0
	ldr	x2, [sp, #24]
	ldr	x1, [sp, #16]
Ltmp302:
	adrp	x0, l___unnamed_5@PAGE
	add	x0, x0, l___unnamed_5@PAGEOFF
	.loc	31 320 11 is_stmt 1
	bl	__ZN63_$LT$alloc..alloc..Global$u20$as$u20$core..alloc..Allocator$GT$8allocate17he88124c3e91039b0E
	str	x0, [sp, #32]
	str	x1, [sp, #40]
	b	LBB95_2
LBB95_2:
	ldr	x9, [sp, #32]
	mov	x8, #0
	subs	x9, x9, #0
	csinc	x8, x8, xzr, ne
	.loc	31 320 5 is_stmt 0
	cbz	x8, LBB95_5
	b	LBB95_3
LBB95_3:
	b	LBB95_6
LBB95_5:
	.loc	31 321 12 is_stmt 1
	ldr	x0, [sp, #32]
	ldr	x1, [sp, #40]
	stur	x0, [x29, #-16]
	stur	x1, [x29, #-8]
Ltmp303:
	.loc	31 321 20 is_stmt 0
	bl	__ZN4core3ptr8non_null26NonNull$LT$$u5b$T$u5d$$GT$10as_mut_ptr17hf892274cfefc6403E
	str	x0, [sp, #8]
	b	LBB95_7
Ltmp304:
LBB95_6:
	.loc	31 0 20
	ldr	x1, [sp, #24]
	ldr	x0, [sp, #16]
	.loc	31 322 19 is_stmt 1
	bl	__ZN5alloc5alloc18handle_alloc_error17h4afd849e24fb807dE
Ltmp305:
LBB95_7:
	.loc	31 0 19 is_stmt 0
	ldr	x0, [sp, #8]
	.loc	31 324 2 is_stmt 1
	ldp	x29, x30, [sp, #96]
	add	sp, sp, #112
	ret
Ltmp306:
Lfunc_end95:
	.cfi_endproc

	.p2align	2
__ZN5alloc5alloc5alloc17h99c7f30eba2e45dbE:
Lfunc_begin96:
	.loc	31 88 0
	.cfi_startproc
	sub	sp, sp, #64
	stp	x29, x30, [sp, #48]
	add	x29, sp, #48
	.cfi_def_cfa w29, 16
	.cfi_offset w30, -8
	.cfi_offset w29, -16
	mov	x8, x0
	sub	x0, x29, #16
	stur	x8, [x29, #-16]
	stur	x1, [x29, #-8]
Ltmp307:
	.loc	31 89 27 prologue_end
	bl	__ZN4core5alloc6layout6Layout4size17hbbe2e2da24e79ffdE
	str	x0, [sp, #24]
	b	LBB96_1
LBB96_1:
	.loc	31 0 27 is_stmt 0
	sub	x0, x29, #16
	.loc	31 89 42
	bl	__ZN4core5alloc6layout6Layout5align17hdff4d2cec999bc98E
	str	x0, [sp, #16]
	b	LBB96_2
LBB96_2:
	.loc	31 0 42
	ldr	x1, [sp, #16]
	ldr	x0, [sp, #24]
	.loc	31 89 14
	bl	___rust_alloc
	str	x0, [sp, #8]
	b	LBB96_3
LBB96_3:
	.loc	31 0 14
	ldr	x0, [sp, #8]
	.loc	31 90 2 is_stmt 1
	ldp	x29, x30, [sp, #48]
	add	sp, sp, #64
	ret
Ltmp308:
Lfunc_end96:
	.cfi_endproc

	.p2align	2
__ZN5alloc5alloc6Global10alloc_impl17h0eaf9360d44d667eE:
Lfunc_begin97:
	.loc	31 166 0
	.cfi_startproc
	sub	sp, sp, #176
	stp	x29, x30, [sp, #160]
	add	x29, sp, #160
	.cfi_def_cfa w29, 16
	.cfi_offset w30, -8
	.cfi_offset w29, -16
	mov	x8, x0
	str	w3, [sp, #60]
	add	x0, sp, #72
	str	x1, [sp, #72]
	str	x2, [sp, #80]
	stur	x8, [x29, #-40]
	and	w8, w3, #0x1
	sturb	w8, [x29, #-26]
Ltmp309:
	.loc	31 167 15 prologue_end
	bl	__ZN4core5alloc6layout6Layout4size17hbbe2e2da24e79ffdE
	str	x0, [sp, #64]
	b	LBB97_1
LBB97_1:
	.loc	31 0 15 is_stmt 0
	ldr	x8, [sp, #64]
	.loc	31 167 9
	cbnz	x8, LBB97_3
	b	LBB97_2
LBB97_2:
	.loc	31 0 9
	add	x0, sp, #72
	.loc	31 168 51 is_stmt 1
	bl	__ZN4core5alloc6layout6Layout8dangling17h93e907a399be1204E
	str	x0, [sp, #48]
	b	LBB97_20
LBB97_3:
	.loc	31 0 51 is_stmt 0
	ldr	w8, [sp, #60]
	ldr	x9, [sp, #64]
	.loc	31 170 13 is_stmt 1
	stur	x9, [x29, #-24]
Ltmp310:
	.loc	31 171 34
	tbnz	w8, #0, LBB97_5
	b	LBB97_4
LBB97_4:
	.loc	31 171 79 is_stmt 0
	ldr	x0, [sp, #72]
	ldr	x1, [sp, #80]
	.loc	31 171 73
	bl	__ZN5alloc5alloc5alloc17h99c7f30eba2e45dbE
	stur	x0, [x29, #-56]
	b	LBB97_8
LBB97_5:
	.loc	31 171 56
	ldr	x0, [sp, #72]
	ldr	x1, [sp, #80]
	.loc	31 171 43
	bl	__ZN5alloc5alloc12alloc_zeroed17h9fc9fc45689b0240E
	stur	x0, [x29, #-56]
	b	LBB97_6
LBB97_6:
	.loc	31 171 31
	b	LBB97_7
LBB97_7:
Ltmp311:
	.loc	31 172 40 is_stmt 1
	ldur	x0, [x29, #-56]
	.loc	31 172 27 is_stmt 0
	bl	__ZN4core3ptr8non_null16NonNull$LT$T$GT$3new17hd5d622305015032aE
	str	x0, [sp, #40]
	b	LBB97_9
Ltmp312:
LBB97_8:
	.loc	31 171 31 is_stmt 1
	b	LBB97_7
LBB97_9:
	.loc	31 0 31 is_stmt 0
	ldr	x0, [sp, #40]
Ltmp313:
	.loc	31 172 27 is_stmt 1
	bl	__ZN4core6option15Option$LT$T$GT$5ok_or17hb13f6cd01eb39356E
	str	x0, [sp, #32]
	b	LBB97_10
LBB97_10:
	.loc	31 0 27 is_stmt 0
	ldr	x0, [sp, #32]
	.loc	31 172 27
	bl	__ZN79_$LT$core..result..Result$LT$T$C$E$GT$$u20$as$u20$core..ops..try_trait..Try$GT$6branch17h1fa2fd2c910519f8E
	stur	x0, [x29, #-48]
	b	LBB97_11
LBB97_11:
	ldur	x9, [x29, #-48]
	mov	x8, #0
	subs	x9, x9, #0
	csinc	x8, x8, xzr, ne
	cbz	x8, LBB97_14
	b	LBB97_12
LBB97_12:
	b	LBB97_15
LBB97_14:
	.loc	31 0 27
	ldr	x1, [sp, #64]
	.loc	31 172 27
	ldur	x0, [x29, #-48]
	stur	x0, [x29, #-16]
Ltmp314:
	.loc	31 172 27
	stur	x0, [x29, #-8]
Ltmp315:
	.loc	31 173 20 is_stmt 1
	bl	__ZN4core3ptr8non_null26NonNull$LT$$u5b$T$u5d$$GT$20slice_from_raw_parts17h64b095306ab20ecfE
	str	x0, [sp, #16]
	str	x1, [sp, #24]
	b	LBB97_18
Ltmp316:
LBB97_15:
	.loc	31 0 0 is_stmt 0
	adrp	x0, l___unnamed_11@PAGE
	add	x0, x0, l___unnamed_11@PAGEOFF
	.loc	31 172 27 is_stmt 1
	bl	__ZN153_$LT$core..result..Result$LT$T$C$F$GT$$u20$as$u20$core..ops..try_trait..FromResidual$LT$core..result..Result$LT$core..convert..Infallible$C$E$GT$$GT$$GT$13from_residual17h2a77273445cf6285E
	stur	x0, [x29, #-72]
	stur	x1, [x29, #-64]
	b	LBB97_16
Ltmp317:
LBB97_16:
	.loc	31 176 6
	b	LBB97_17
LBB97_17:
	ldur	x0, [x29, #-72]
	ldur	x1, [x29, #-64]
	ldp	x29, x30, [sp, #160]
	add	sp, sp, #176
	ret
LBB97_18:
	.loc	31 0 6 is_stmt 0
	ldr	x8, [sp, #24]
	ldr	x9, [sp, #16]
Ltmp318:
	.loc	31 173 17 is_stmt 1
	stur	x9, [x29, #-72]
	stur	x8, [x29, #-64]
Ltmp319:
	.loc	31 174 13
	b	LBB97_19
LBB97_19:
	.loc	31 176 6
	b	LBB97_17
LBB97_20:
	.loc	31 0 6 is_stmt 0
	ldr	x0, [sp, #48]
	mov	x1, #0
	.loc	31 168 21 is_stmt 1
	bl	__ZN4core3ptr8non_null26NonNull$LT$$u5b$T$u5d$$GT$20slice_from_raw_parts17h64b095306ab20ecfE
	str	x0, [sp]
	str	x1, [sp, #8]
	b	LBB97_21
LBB97_21:
	.loc	31 0 21 is_stmt 0
	ldr	x8, [sp, #8]
	ldr	x9, [sp]
	.loc	31 168 18
	stur	x9, [x29, #-72]
	stur	x8, [x29, #-64]
	.loc	31 168 72
	b	LBB97_19
Ltmp320:
Lfunc_end97:
	.cfi_endproc

	.p2align	2
__ZN5alloc5alloc7dealloc17h53130dcb77231eacE:
Lfunc_begin98:
	.loc	31 106 0 is_stmt 1
	.cfi_startproc
	sub	sp, sp, #64
	stp	x29, x30, [sp, #48]
	add	x29, sp, #48
	.cfi_def_cfa w29, 16
	.cfi_offset w30, -8
	.cfi_offset w29, -16
	mov	x8, x0
	str	x8, [sp, #8]
	add	x0, sp, #24
	str	x1, [sp, #24]
	str	x2, [sp, #32]
	stur	x8, [x29, #-8]
Ltmp321:
	.loc	31 107 34 prologue_end
	bl	__ZN4core5alloc6layout6Layout4size17hbbe2e2da24e79ffdE
	str	x0, [sp, #16]
	b	LBB98_1
LBB98_1:
	.loc	31 0 34 is_stmt 0
	add	x0, sp, #24
	.loc	31 107 49
	bl	__ZN4core5alloc6layout6Layout5align17hdff4d2cec999bc98E
	str	x0, [sp]
	b	LBB98_2
LBB98_2:
	.loc	31 0 49
	ldr	x2, [sp]
	ldr	x1, [sp, #16]
	ldr	x0, [sp, #8]
	.loc	31 107 14
	bl	___rust_dealloc
	b	LBB98_3
LBB98_3:
	.loc	31 108 2 is_stmt 1
	ldp	x29, x30, [sp, #48]
	add	sp, sp, #64
	ret
Ltmp322:
Lfunc_end98:
	.cfi_endproc

	.p2align	2
__ZN5alloc5alloc8box_free17h3c187b984de7016aE:
Lfunc_begin99:
	.loc	31 335 0
	.cfi_startproc
	.cfi_personality 155, _rust_eh_personality
	.cfi_lsda 16, Lexception6
	sub	sp, sp, #160
	stp	x29, x30, [sp, #144]
	add	x29, sp, #144
	.cfi_def_cfa w29, 16
	.cfi_offset w30, -8
	.cfi_offset w29, -16
	mov	x8, x0
	add	x0, sp, #56
	str	x8, [sp, #56]
	str	x1, [sp, #64]
Ltmp323:
Ltmp336:
	.loc	31 343 32 prologue_end
	bl	__ZN4core3ptr6unique15Unique$LT$T$GT$6as_ref17hcae5a46f022ed30eE
	str	x1, [sp, #48]
Ltmp324:
	b	LBB99_3
LBB99_1:
	.loc	31 348 1
	b	LBB99_11
LBB99_2:
Ltmp335:
	.loc	31 0 1 is_stmt 0
	mov	x8, x1
	stur	x0, [x29, #-64]
	stur	w8, [x29, #-56]
	b	LBB99_1
LBB99_3:
	ldr	x8, [sp, #48]
	.loc	31 343 20 is_stmt 1
	lsl	x8, x8, #2
	stur	x8, [x29, #-48]
	ldur	x8, [x29, #-48]
	str	x8, [sp, #40]
	stur	x8, [x29, #-40]
	b	LBB99_4
LBB99_4:
Ltmp325:
	.loc	31 0 20 is_stmt 0
	add	x0, sp, #56
Ltmp337:
	.loc	31 344 38 is_stmt 1
	bl	__ZN4core3ptr6unique15Unique$LT$T$GT$6as_ref17hcae5a46f022ed30eE
Ltmp326:
	b	LBB99_5
LBB99_5:
	.loc	31 0 38 is_stmt 0
	mov	w8, #4
	.loc	31 344 21
	stur	x8, [x29, #-32]
	ldur	x8, [x29, #-32]
	str	x8, [sp, #32]
	stur	x8, [x29, #-24]
	b	LBB99_6
LBB99_6:
Ltmp327:
	.loc	31 0 21
	ldr	x1, [sp, #32]
	ldr	x0, [sp, #40]
Ltmp338:
	.loc	31 345 22 is_stmt 1
	bl	__ZN4core5alloc6layout6Layout25from_size_align_unchecked17hb060e11bf7c04f95E
	str	x0, [sp, #16]
	str	x1, [sp, #24]
Ltmp328:
	b	LBB99_7
LBB99_7:
	.loc	31 0 22 is_stmt 0
	ldr	x8, [sp, #24]
	ldr	x9, [sp, #16]
	.loc	31 345 22
	stur	x9, [x29, #-16]
	stur	x8, [x29, #-8]
Ltmp339:
	.loc	31 346 37 is_stmt 1
	ldr	x0, [sp, #56]
	ldr	x1, [sp, #64]
Ltmp329:
	bl	__ZN4core3ptr6unique15Unique$LT$T$GT$4cast17hf5d2b92d9fa9f9b0E
	str	x0, [sp, #8]
Ltmp330:
	b	LBB99_8
LBB99_8:
Ltmp331:
	.loc	31 0 37 is_stmt 0
	ldr	x0, [sp, #8]
	.loc	31 346 26
	bl	__ZN119_$LT$core..ptr..non_null..NonNull$LT$T$GT$$u20$as$u20$core..convert..From$LT$core..ptr..unique..Unique$LT$T$GT$$GT$$GT$4from17h1a09c78b87d93efbE
	str	x0, [sp]
Ltmp332:
	b	LBB99_9
LBB99_9:
Ltmp333:
	.loc	31 0 26
	ldr	x3, [sp, #24]
	ldr	x2, [sp, #16]
	ldr	x1, [sp]
	sub	x0, x29, #65
	.loc	31 346 9
	bl	__ZN63_$LT$alloc..alloc..Global$u20$as$u20$core..alloc..Allocator$GT$10deallocate17hc85886bd0d30ec21E
Ltmp334:
	b	LBB99_10
Ltmp340:
LBB99_10:
	.loc	31 348 1 is_stmt 1
	b	LBB99_12
LBB99_11:
	.loc	31 335 1
	ldur	x0, [x29, #-64]
	bl	__Unwind_Resume
LBB99_12:
	.loc	31 348 2
	ldp	x29, x30, [sp, #144]
	add	sp, sp, #160
	ret
Ltmp341:
Lfunc_end99:
	.cfi_endproc
	.section	__TEXT,__gcc_except_tab
	.p2align	2
GCC_except_table99:
Lexception6:
	.byte	255
	.byte	255
	.byte	1
	.uleb128 Lcst_end6-Lcst_begin6
Lcst_begin6:
	.uleb128 Ltmp323-Lfunc_begin99
	.uleb128 Ltmp334-Ltmp323
	.uleb128 Ltmp335-Lfunc_begin99
	.byte	0
	.uleb128 Ltmp334-Lfunc_begin99
	.uleb128 Lfunc_end99-Ltmp334
	.byte	0
	.byte	0
Lcst_end6:
	.p2align	2

	.section	__TEXT,__text,regular,pure_instructions
	.p2align	2
__ZN5alloc5boxed16Box$LT$T$C$A$GT$11into_unique17hddf8aebcd5a46d99E:
Lfunc_begin100:
	.file	32 "/rustc/fe5b13d681f25ee6474be29d748c65adcd91f69e/library/alloc/src/boxed.rs"
	.loc	32 1095 0
	.cfi_startproc
	.cfi_personality 155, _rust_eh_personality
	.cfi_lsda 16, Lexception7
	sub	sp, sp, #112
	stp	x29, x30, [sp, #96]
	add	x29, sp, #96
	.cfi_def_cfa w29, 16
	.cfi_offset w30, -8
	.cfi_offset w29, -16
	mov	x8, x0
	add	x0, sp, #40
	str	x8, [sp, #40]
	str	x1, [sp, #48]
Ltmp353:
	.loc	32 1101 13 prologue_end
	sturb	wzr, [x29, #-18]
	mov	w8, #1
	sturb	w8, [x29, #-18]
Ltmp342:
	.loc	32 1101 30 is_stmt 0
	bl	__ZN4core3ptr4read17h71423e98d00635bcE
Ltmp343:
	b	LBB100_3
LBB100_1:
	.loc	32 1103 5 is_stmt 1
	ldurb	w8, [x29, #-18]
	tbnz	w8, #0, LBB100_9
	b	LBB100_8
LBB100_2:
Ltmp344:
	.loc	32 0 5 is_stmt 0
	mov	x8, x1
	stur	x0, [x29, #-16]
	stur	w8, [x29, #-8]
	b	LBB100_1
LBB100_3:
Ltmp354:
	.loc	32 1102 33 is_stmt 1
	sturb	wzr, [x29, #-18]
	ldr	x0, [sp, #40]
	ldr	x1, [sp, #48]
Ltmp345:
	.loc	32 1102 23 is_stmt 0
	bl	__ZN5alloc5boxed16Box$LT$T$C$A$GT$4leak17h21a5e0cd06ffb35cE
	str	x0, [sp, #24]
	str	x1, [sp, #32]
Ltmp346:
	b	LBB100_6
Ltmp355:
LBB100_4:
	.loc	32 1103 5 is_stmt 1
	b	LBB100_1
LBB100_5:
Ltmp349:
	.loc	32 0 5 is_stmt 0
	mov	x8, x1
	stur	x0, [x29, #-16]
	stur	w8, [x29, #-8]
	b	LBB100_4
LBB100_6:
Ltmp347:
	ldr	x1, [sp, #32]
	ldr	x0, [sp, #24]
Ltmp356:
	.loc	32 1102 10 is_stmt 1
	bl	__ZN95_$LT$core..ptr..unique..Unique$LT$T$GT$$u20$as$u20$core..convert..From$LT$$RF$mut$u20$T$GT$$GT$4from17h38ab7d2c3387c05dE
	str	x0, [sp, #8]
	str	x1, [sp, #16]
Ltmp348:
	b	LBB100_7
LBB100_7:
	.loc	32 0 10 is_stmt 0
	ldr	x8, [sp, #16]
	ldr	x9, [sp, #8]
	.loc	32 1102 9
	stur	x9, [x29, #-40]
	stur	x8, [x29, #-32]
Ltmp357:
	.loc	32 1103 6 is_stmt 1
	ldur	x0, [x29, #-40]
	ldur	x1, [x29, #-32]
	ldp	x29, x30, [sp, #96]
	add	sp, sp, #112
	ret
LBB100_8:
	.loc	32 1095 5
	ldur	x0, [x29, #-16]
	bl	__Unwind_Resume
LBB100_9:
Ltmp350:
	.loc	32 0 5 is_stmt 0
	add	x0, sp, #40
	.loc	32 1103 5 is_stmt 1
	bl	__ZN4core3ptr59drop_in_place$LT$alloc..boxed..Box$LT$$u5b$i32$u5d$$GT$$GT$17he3c5f434e4a62e5cE
Ltmp351:
	b	LBB100_8
LBB100_10:
Ltmp352:
	.loc	32 1095 5
	bl	__ZN4core9panicking15panic_no_unwind17h7524772236963827E
Ltmp358:
Lfunc_end100:
	.cfi_endproc
	.section	__TEXT,__gcc_except_tab
	.p2align	2
GCC_except_table100:
Lexception7:
	.byte	255
	.byte	255
	.byte	1
	.uleb128 Lcst_end7-Lcst_begin7
Lcst_begin7:
	.uleb128 Ltmp342-Lfunc_begin100
	.uleb128 Ltmp343-Ltmp342
	.uleb128 Ltmp344-Lfunc_begin100
	.byte	0
	.uleb128 Ltmp345-Lfunc_begin100
	.uleb128 Ltmp348-Ltmp345
	.uleb128 Ltmp349-Lfunc_begin100
	.byte	0
	.uleb128 Ltmp348-Lfunc_begin100
	.uleb128 Ltmp350-Ltmp348
	.byte	0
	.byte	0
	.uleb128 Ltmp350-Lfunc_begin100
	.uleb128 Ltmp351-Ltmp350
	.uleb128 Ltmp352-Lfunc_begin100
	.byte	0
Lcst_end7:
	.p2align	2

	.section	__TEXT,__text,regular,pure_instructions
	.p2align	2
__ZN5alloc5boxed16Box$LT$T$C$A$GT$23into_raw_with_allocator17h4440c66b7bbcab83E:
Lfunc_begin101:
	.loc	32 1082 0
	.cfi_startproc
	.cfi_personality 155, _rust_eh_personality
	.cfi_lsda 16, Lexception8
	sub	sp, sp, #128
	stp	x29, x30, [sp, #112]
	add	x29, sp, #112
	.cfi_def_cfa w29, 16
	.cfi_offset w30, -8
	.cfi_offset w29, -16
	mov	x8, x0
	str	x8, [sp, #56]
	str	x1, [sp, #64]
Ltmp362:
	.loc	32 1083 31 prologue_end
	bl	__ZN5alloc5boxed16Box$LT$T$C$A$GT$11into_unique17hddf8aebcd5a46d99E
	str	x0, [sp, #24]
	str	x1, [sp, #32]
	b	LBB101_1
LBB101_1:
	.loc	32 0 31 is_stmt 0
	ldr	x1, [sp, #32]
	ldr	x0, [sp, #24]
	.loc	32 1083 14
	mov	x8, x0
	stur	x8, [x29, #-32]
	stur	x1, [x29, #-24]
Ltmp359:
Ltmp363:
	.loc	32 1084 10 is_stmt 1
	bl	__ZN4core3ptr6unique15Unique$LT$T$GT$6as_ptr17hf06c74cf27be7833E
	str	x0, [sp, #8]
	str	x1, [sp, #16]
Ltmp360:
	b	LBB101_4
Ltmp364:
LBB101_2:
	.loc	32 1085 5
	b	LBB101_5
LBB101_3:
Ltmp361:
	.loc	32 0 5 is_stmt 0
	mov	x8, x1
	stur	x0, [x29, #-16]
	stur	w8, [x29, #-8]
	b	LBB101_2
LBB101_4:
	ldr	x8, [sp, #16]
	ldr	x9, [sp, #8]
Ltmp365:
	.loc	32 1084 9 is_stmt 1
	str	x9, [sp, #40]
	str	x8, [sp, #48]
Ltmp366:
	.loc	32 1085 6
	ldr	x0, [sp, #40]
	ldr	x1, [sp, #48]
	ldp	x29, x30, [sp, #112]
	add	sp, sp, #128
	ret
LBB101_5:
	.loc	32 1082 5
	ldur	x0, [x29, #-16]
	bl	__Unwind_Resume
Ltmp367:
Lfunc_end101:
	.cfi_endproc
	.section	__TEXT,__gcc_except_tab
	.p2align	2
GCC_except_table101:
Lexception8:
	.byte	255
	.byte	255
	.byte	1
	.uleb128 Lcst_end8-Lcst_begin8
Lcst_begin8:
	.uleb128 Lfunc_begin101-Lfunc_begin101
	.uleb128 Ltmp359-Lfunc_begin101
	.byte	0
	.byte	0
	.uleb128 Ltmp359-Lfunc_begin101
	.uleb128 Ltmp360-Ltmp359
	.uleb128 Ltmp361-Lfunc_begin101
	.byte	0
	.uleb128 Ltmp360-Lfunc_begin101
	.uleb128 Lfunc_end101-Ltmp360
	.byte	0
	.byte	0
Lcst_end8:
	.p2align	2

	.section	__TEXT,__text,regular,pure_instructions
	.p2align	2
__ZN5alloc5boxed16Box$LT$T$C$A$GT$4leak17h21a5e0cd06ffb35cE:
Lfunc_begin102:
	.loc	32 1155 0
	.cfi_startproc
	sub	sp, sp, #112
	stp	x29, x30, [sp, #96]
	add	x29, sp, #96
	.cfi_def_cfa w29, 16
	.cfi_offset w30, -8
	.cfi_offset w29, -16
	mov	x8, x0
	str	x8, [sp, #40]
	str	x1, [sp, #48]
	mov	x8, x0
	stur	x8, [x29, #-24]
	stur	x1, [x29, #-16]
Ltmp368:
	.loc	17 71 9 prologue_end
	stur	x0, [x29, #-40]
	stur	x1, [x29, #-32]
	.loc	17 72 6
	ldur	x9, [x29, #-40]
	ldur	x8, [x29, #-32]
Ltmp369:
	.loc	32 1159 24
	str	x9, [sp, #24]
	str	x8, [sp, #32]
	b	LBB102_1
LBB102_1:
	.loc	32 0 24 is_stmt 0
	add	x8, sp, #24
	stur	x8, [x29, #-8]
	.loc	32 1159 24
	b	LBB102_2
LBB102_2:
	ldr	x0, [sp, #24]
	ldr	x1, [sp, #32]
	bl	__ZN4core3ptr6unique15Unique$LT$T$GT$6as_ptr17hf06c74cf27be7833E
	str	x0, [sp, #8]
	str	x1, [sp, #16]
	b	LBB102_3
LBB102_3:
	.loc	32 0 24
	ldr	x1, [sp, #16]
	ldr	x0, [sp, #8]
	.loc	32 1160 6 is_stmt 1
	ldp	x29, x30, [sp, #96]
	add	sp, sp, #112
	ret
Ltmp370:
Lfunc_end102:
	.cfi_endproc

	.p2align	2
__ZN5alloc5slice29_$LT$impl$u20$$u5b$T$u5d$$GT$8into_vec17hf18cc18c890051b7E:
Lfunc_begin103:
	.file	33 "/rustc/fe5b13d681f25ee6474be29d748c65adcd91f69e/library/alloc/src/slice.rs"
	.loc	33 527 0
	.cfi_startproc
	sub	sp, sp, #32
	stp	x29, x30, [sp, #16]
	add	x29, sp, #16
	.cfi_def_cfa w29, 16
	.cfi_offset w30, -8
	.cfi_offset w29, -16
	mov	x9, x0
	str	x9, [sp]
	str	x1, [sp, #8]
Ltmp371:
	.loc	33 529 9 prologue_end
	bl	__ZN5alloc5slice4hack8into_vec17h1528ba92ff1d5ea7E
	b	LBB103_1
LBB103_1:
	.loc	33 530 6
	ldp	x29, x30, [sp, #16]
	add	sp, sp, #32
	ret
Ltmp372:
Lfunc_end103:
	.cfi_endproc

	.p2align	2
__ZN5alloc5slice4hack8into_vec17h1528ba92ff1d5ea7E:
Lfunc_begin104:
	.loc	33 165 0
	.cfi_startproc
	.cfi_personality 155, _rust_eh_personality
	.cfi_lsda 16, Lexception9
	sub	sp, sp, #112
	stp	x29, x30, [sp, #96]
	add	x29, sp, #96
	.cfi_def_cfa w29, 16
	.cfi_offset w30, -8
	.cfi_offset w29, -16
	str	x8, [sp, #16]
	str	x0, [sp, #32]
	str	x1, [sp, #40]
Ltmp383:
	.loc	33 167 17 prologue_end
	sturb	wzr, [x29, #-42]
	mov	w8, #1
	sturb	w8, [x29, #-42]
	.loc	33 167 23 is_stmt 0
	ldr	x0, [sp, #32]
	ldr	x1, [sp, #40]
Ltmp373:
	bl	__ZN4core5slice29_$LT$impl$u20$$u5b$T$u5d$$GT$3len17hf982a02372ad5fb8E
	str	x0, [sp, #24]
Ltmp374:
	b	LBB104_3
LBB104_1:
	.loc	33 171 5 is_stmt 1
	ldurb	w8, [x29, #-42]
	tbnz	w8, #0, LBB104_7
	b	LBB104_6
LBB104_2:
Ltmp379:
	.loc	33 0 5 is_stmt 0
	mov	x8, x1
	stur	x0, [x29, #-40]
	stur	w8, [x29, #-32]
	b	LBB104_1
LBB104_3:
	ldr	x8, [sp, #24]
	.loc	33 167 23 is_stmt 1
	stur	x8, [x29, #-24]
Ltmp384:
	.loc	33 168 59
	sturb	wzr, [x29, #-42]
	ldr	x0, [sp, #32]
	ldr	x1, [sp, #40]
Ltmp375:
	.loc	33 168 30 is_stmt 0
	bl	__ZN5alloc5boxed16Box$LT$T$C$A$GT$23into_raw_with_allocator17h4440c66b7bbcab83E
	str	x0, [sp]
	str	x1, [sp, #8]
Ltmp376:
	b	LBB104_4
LBB104_4:
	.loc	33 0 30
	ldr	x2, [sp, #24]
	ldr	x0, [sp]
	ldr	x8, [sp, #16]
	ldr	x9, [sp, #8]
	.loc	33 168 18
	mov	x10, x0
	stur	x10, [x29, #-16]
	stur	x9, [x29, #-8]
Ltmp377:
Ltmp385:
	.loc	33 169 13 is_stmt 1
	mov	x1, x2
	bl	__ZN5alloc3vec16Vec$LT$T$C$A$GT$17from_raw_parts_in17h47953c0636c1af1fE
Ltmp378:
	b	LBB104_5
Ltmp386:
LBB104_5:
	.loc	33 171 6
	ldp	x29, x30, [sp, #96]
	add	sp, sp, #112
	ret
LBB104_6:
	.loc	33 165 5
	ldur	x0, [x29, #-40]
	bl	__Unwind_Resume
LBB104_7:
Ltmp380:
	.loc	33 0 5 is_stmt 0
	add	x0, sp, #32
	.loc	33 171 5 is_stmt 1
	bl	__ZN4core3ptr59drop_in_place$LT$alloc..boxed..Box$LT$$u5b$i32$u5d$$GT$$GT$17he3c5f434e4a62e5cE
Ltmp381:
	b	LBB104_6
LBB104_8:
Ltmp382:
	.loc	33 165 5
	bl	__ZN4core9panicking15panic_no_unwind17h7524772236963827E
Ltmp387:
Lfunc_end104:
	.cfi_endproc
	.section	__TEXT,__gcc_except_tab
	.p2align	2
GCC_except_table104:
Lexception9:
	.byte	255
	.byte	255
	.byte	1
	.uleb128 Lcst_end9-Lcst_begin9
Lcst_begin9:
	.uleb128 Ltmp373-Lfunc_begin104
	.uleb128 Ltmp378-Ltmp373
	.uleb128 Ltmp379-Lfunc_begin104
	.byte	0
	.uleb128 Ltmp378-Lfunc_begin104
	.uleb128 Ltmp380-Ltmp378
	.byte	0
	.byte	0
	.uleb128 Ltmp380-Lfunc_begin104
	.uleb128 Ltmp381-Ltmp380
	.uleb128 Ltmp382-Lfunc_begin104
	.byte	0
Lcst_end9:
	.p2align	2

	.section	__TEXT,__text,regular,pure_instructions
	.p2align	2
__ZN5alloc7raw_vec19RawVec$LT$T$C$A$GT$14current_memory17h8f16f14d4e28c95eE:
Lfunc_begin105:
	.file	34 "/rustc/fe5b13d681f25ee6474be29d748c65adcd91f69e/library/alloc/src/raw_vec.rs"
	.loc	34 240 0
	.cfi_startproc
	sub	sp, sp, #144
	stp	x29, x30, [sp, #128]
	add	x29, sp, #128
	.cfi_def_cfa w29, 16
	.cfi_offset w30, -8
	.cfi_offset w29, -16
	str	x8, [sp, #56]
	str	x0, [sp, #64]
	stur	x0, [x29, #-24]
Ltmp388:
	.loc	34 241 12 prologue_end
	b	LBB105_1
LBB105_1:
	.loc	34 0 12 is_stmt 0
	mov	w8, #4
	.loc	34 241 12
	cbnz	x8, LBB105_3
	b	LBB105_2
LBB105_2:
	.loc	34 0 12
	mov	w8, #1
	.loc	34 241 12
	sturb	w8, [x29, #-49]
	b	LBB105_4
LBB105_3:
	.loc	34 0 12
	ldr	x8, [sp, #64]
	.loc	34 241 40
	ldr	x8, [x8, #8]
	subs	x8, x8, #0
	cset	w8, eq
	.loc	34 241 12
	and	w8, w8, #0x1
	sturb	w8, [x29, #-49]
	b	LBB105_4
LBB105_4:
	ldurb	w8, [x29, #-49]
	tbnz	w8, #0, LBB105_6
	b	LBB105_5
LBB105_5:
	.loc	34 0 12
	ldr	x8, [sp, #64]
	.loc	34 247 49 is_stmt 1
	ldr	x0, [x8, #8]
	.loc	34 247 30 is_stmt 0
	bl	__ZN4core5alloc6layout6Layout5array17hbb0bbdf6dd885a92E
	str	x0, [sp, #40]
	str	x1, [sp, #48]
	b	LBB105_8
LBB105_6:
	.loc	34 0 30
	ldr	x8, [sp, #56]
	.loc	34 242 13 is_stmt 1
	str	xzr, [x8]
	str	xzr, [x8, #8]
	str	xzr, [x8, #16]
	str	xzr, [x8]
	.loc	34 241 9
	b	LBB105_7
LBB105_7:
	.loc	34 251 6
	ldp	x29, x30, [sp, #128]
	add	sp, sp, #144
	ret
LBB105_8:
	.loc	34 0 6 is_stmt 0
	ldr	x1, [sp, #48]
	ldr	x0, [sp, #40]
	adrp	x2, l___unnamed_12@PAGE
	add	x2, x2, l___unnamed_12@PAGEOFF
	.loc	34 247 30 is_stmt 1
	bl	__ZN4core6result19Result$LT$T$C$E$GT$16unwrap_unchecked17he54bf2c57bbd2c13E
	str	x0, [sp, #24]
	str	x1, [sp, #32]
	stur	x0, [x29, #-16]
	stur	x1, [x29, #-8]
	b	LBB105_9
LBB105_9:
	.loc	34 0 30 is_stmt 0
	ldr	x8, [sp, #64]
Ltmp389:
	.loc	34 248 23 is_stmt 1
	ldr	x0, [x8]
	bl	__ZN4core3ptr6unique15Unique$LT$T$GT$4cast17h2e3fc32b925a329aE
	str	x0, [sp, #16]
	b	LBB105_10
LBB105_10:
	.loc	34 0 23 is_stmt 0
	ldr	x0, [sp, #16]
	.loc	34 248 23
	bl	__ZN50_$LT$T$u20$as$u20$core..convert..Into$LT$U$GT$$GT$4into17h4c141a1d03322c7bE
	str	x0, [sp, #8]
	b	LBB105_11
LBB105_11:
	.loc	34 0 23
	ldr	x9, [sp, #56]
	ldr	x8, [sp, #32]
	ldr	x10, [sp, #24]
	ldr	x11, [sp, #8]
	.loc	34 248 22
	stur	x11, [x29, #-48]
	stur	x10, [x29, #-40]
	stur	x8, [x29, #-32]
	.loc	34 248 17
	ldur	q0, [x29, #-48]
	str	q0, [x9]
	ldur	x8, [x29, #-32]
	str	x8, [x9, #16]
Ltmp390:
	.loc	34 241 9 is_stmt 1
	b	LBB105_7
Ltmp391:
Lfunc_end105:
	.cfi_endproc

	.p2align	2
__ZN5alloc7raw_vec19RawVec$LT$T$C$A$GT$17from_raw_parts_in17h1eeb02e86b7d6d43E:
Lfunc_begin106:
	.loc	34 215 0
	.cfi_startproc
	.cfi_personality 155, _rust_eh_personality
	.cfi_lsda 16, Lexception10
	sub	sp, sp, #96
	stp	x29, x30, [sp, #80]
	add	x29, sp, #80
	.cfi_def_cfa w29, 16
	.cfi_offset w30, -8
	.cfi_offset w29, -16
	str	x1, [sp, #8]
	mov	x8, x0
	str	x8, [sp, #40]
	stur	x1, [x29, #-32]
Ltmp392:
Ltmp395:
	.loc	34 216 30 prologue_end
	bl	__ZN4core3ptr6unique15Unique$LT$T$GT$13new_unchecked17hb49593dce6e59f33E
	str	x0, [sp, #16]
Ltmp393:
	b	LBB106_3
LBB106_1:
	.loc	34 217 5
	b	LBB106_4
LBB106_2:
Ltmp394:
	.loc	34 0 5 is_stmt 0
	mov	x8, x1
	stur	x0, [x29, #-16]
	stur	w8, [x29, #-8]
	b	LBB106_1
LBB106_3:
	ldr	x8, [sp, #8]
	ldr	x9, [sp, #16]
	.loc	34 216 9 is_stmt 1
	str	x9, [sp, #24]
	str	x8, [sp, #32]
	.loc	34 217 6
	ldr	x0, [sp, #24]
	ldr	x1, [sp, #32]
	ldp	x29, x30, [sp, #80]
	add	sp, sp, #96
	ret
LBB106_4:
	.loc	34 215 5
	ldur	x0, [x29, #-16]
	bl	__Unwind_Resume
Ltmp396:
Lfunc_end106:
	.cfi_endproc
	.section	__TEXT,__gcc_except_tab
	.p2align	2
GCC_except_table106:
Lexception10:
	.byte	255
	.byte	255
	.byte	1
	.uleb128 Lcst_end10-Lcst_begin10
Lcst_begin10:
	.uleb128 Ltmp392-Lfunc_begin106
	.uleb128 Ltmp393-Ltmp392
	.uleb128 Ltmp394-Lfunc_begin106
	.byte	0
	.uleb128 Ltmp393-Lfunc_begin106
	.uleb128 Lfunc_end106-Ltmp393
	.byte	0
	.byte	0
Lcst_end10:
	.p2align	2

	.section	__TEXT,__text,regular,pure_instructions
	.p2align	2
__ZN5alloc7raw_vec19RawVec$LT$T$C$A$GT$3ptr17he061cf5c7f03c654E:
Lfunc_begin107:
	.loc	34 223 0
	.cfi_startproc
	sub	sp, sp, #32
	stp	x29, x30, [sp, #16]
	add	x29, sp, #16
	.cfi_def_cfa w29, 16
	.cfi_offset w30, -8
	.cfi_offset w29, -16
	mov	x8, x0
	str	x8, [sp, #8]
Ltmp397:
	.loc	34 224 9 prologue_end
	ldr	x0, [x0]
	bl	__ZN4core3ptr6unique15Unique$LT$T$GT$6as_ptr17h89e4603a74c0a5a6E
	str	x0, [sp]
	b	LBB107_1
LBB107_1:
	.loc	34 0 9 is_stmt 0
	ldr	x0, [sp]
	.loc	34 225 6 is_stmt 1
	ldp	x29, x30, [sp, #16]
	add	sp, sp, #32
	ret
Ltmp398:
Lfunc_end107:
	.cfi_endproc

	.p2align	2
__ZN5alloc7raw_vec19RawVec$LT$T$C$A$GT$9allocator17h1a78011624fe2d59E:
Lfunc_begin108:
	.loc	34 236 0
	.cfi_startproc
	sub	sp, sp, #16
	.cfi_def_cfa_offset 16
	mov	x8, x0
	str	x8, [sp, #8]
Ltmp400:
	.loc	34 238 6 prologue_end
	add	sp, sp, #16
	ret
Ltmp401:
Lfunc_end108:
	.cfi_endproc

	.p2align	2
__ZN63_$LT$alloc..alloc..Global$u20$as$u20$core..alloc..Allocator$GT$10deallocate17hc85886bd0d30ec21E:
Lfunc_begin109:
	.loc	31 240 0
	.cfi_startproc
	sub	sp, sp, #80
	stp	x29, x30, [sp, #64]
	add	x29, sp, #64
	.cfi_def_cfa w29, 16
	.cfi_offset w30, -8
	.cfi_offset w29, -16
	mov	x8, x0
	str	x1, [sp, #16]
	add	x0, sp, #32
	str	x2, [sp, #32]
	str	x3, [sp, #40]
	stur	x8, [x29, #-16]
	stur	x1, [x29, #-8]
Ltmp402:
	.loc	31 241 12 prologue_end
	bl	__ZN4core5alloc6layout6Layout4size17hbbe2e2da24e79ffdE
	str	x0, [sp, #24]
	b	LBB109_1
LBB109_1:
	.loc	31 0 12 is_stmt 0
	ldr	x8, [sp, #24]
	.loc	31 241 12
	cbnz	x8, LBB109_3
	b	LBB109_2
LBB109_2:
	.loc	31 241 9
	b	LBB109_6
LBB109_3:
	.loc	31 0 9
	ldr	x0, [sp, #16]
	.loc	31 244 30 is_stmt 1
	bl	__ZN4core3ptr8non_null16NonNull$LT$T$GT$6as_ptr17h0d1801ae608ed0d5E
	str	x0, [sp, #8]
	b	LBB109_4
LBB109_4:
	.loc	31 0 30 is_stmt 0
	ldr	x0, [sp, #8]
	.loc	31 244 44
	ldr	x1, [sp, #32]
	ldr	x2, [sp, #40]
	.loc	31 244 22
	bl	__ZN5alloc5alloc7dealloc17h53130dcb77231eacE
	b	LBB109_5
LBB109_5:
	.loc	31 241 9 is_stmt 1
	b	LBB109_6
LBB109_6:
	.loc	31 246 6
	ldp	x29, x30, [sp, #64]
	add	sp, sp, #80
	ret
Ltmp403:
Lfunc_end109:
	.cfi_endproc

	.p2align	2
__ZN63_$LT$alloc..alloc..Global$u20$as$u20$core..alloc..Allocator$GT$8allocate17he88124c3e91039b0E:
Lfunc_begin110:
	.loc	31 230 0
	.cfi_startproc
	sub	sp, sp, #64
	stp	x29, x30, [sp, #48]
	add	x29, sp, #48
	.cfi_def_cfa w29, 16
	.cfi_offset w30, -8
	.cfi_offset w29, -16
	mov	x8, x0
	str	x8, [sp, #24]
	stur	x1, [x29, #-16]
	stur	x2, [x29, #-8]
	mov	w8, #0
Ltmp404:
	.loc	31 231 9 prologue_end
	and	w3, w8, #0x1
	bl	__ZN5alloc5alloc6Global10alloc_impl17h0eaf9360d44d667eE
	str	x0, [sp, #8]
	str	x1, [sp, #16]
	b	LBB110_1
LBB110_1:
	.loc	31 0 9 is_stmt 0
	ldr	x1, [sp, #16]
	ldr	x0, [sp, #8]
	.loc	31 232 6 is_stmt 1
	ldp	x29, x30, [sp, #48]
	add	sp, sp, #64
	ret
Ltmp405:
Lfunc_end110:
	.cfi_endproc

	.p2align	2
__ZN64_$LT$core..option..Option$LT$T$GT$$u20$as$u20$core..cmp..Ord$GT$3cmp17hbb938f58327fd82aE:
Lfunc_begin111:
	.loc	27 515 0
	.cfi_startproc
	sub	sp, sp, #128
	stp	x29, x30, [sp, #112]
	add	x29, sp, #112
	.cfi_def_cfa w29, 16
	.cfi_offset w30, -8
	.cfi_offset w29, -16
	str	x0, [sp, #8]
	str	x1, [sp, #16]
	mov	x8, x0
	stur	x8, [x29, #-40]
	mov	x8, x1
	stur	x8, [x29, #-32]
Ltmp406:
	.loc	27 515 43 prologue_end
	ldr	w8, [x0]
	str	x8, [sp, #32]
Ltmp407:
	.loc	27 515 43 is_stmt 0
	ldr	w8, [x1]
	str	x8, [sp, #40]
Ltmp408:
	.loc	27 515 43
	ldr	x8, [sp, #32]
	ldr	x9, [sp, #40]
	subs	x8, x8, x9
	b.eq	LBB111_2
	b	LBB111_1
LBB111_1:
	.loc	27 0 43
	add	x0, sp, #32
	add	x1, sp, #40
	.loc	27 515 43
	bl	__ZN4core3cmp5impls50_$LT$impl$u20$core..cmp..Ord$u20$for$u20$isize$GT$3cmp17h6169608f9cd3400dE
	strb	w0, [sp, #31]
	b	LBB111_12
LBB111_2:
	.loc	27 0 43
	ldr	x8, [sp, #16]
	ldr	x9, [sp, #8]
	.loc	27 515 43
	str	x9, [sp, #48]
	str	x8, [sp, #56]
	ldr	x8, [sp, #48]
	ldr	w8, [x8]
	subs	x8, x8, #1
	b.ne	LBB111_4
	b	LBB111_3
LBB111_3:
	ldr	x8, [sp, #56]
	ldr	w8, [x8]
	subs	x8, x8, #1
	b.eq	LBB111_5
	b	LBB111_4
LBB111_4:
	strb	wzr, [sp, #31]
	b	LBB111_6
LBB111_5:
	.loc	27 526 56 is_stmt 1
	ldr	x8, [sp, #48]
	add	x0, x8, #4
	mov	x8, x0
	stur	x8, [x29, #-24]
	ldr	x8, [sp, #56]
	add	x1, x8, #4
	mov	x8, x1
	stur	x8, [x29, #-16]
Ltmp409:
	.loc	27 526 56 is_stmt 0
	bl	__ZN4core3cmp5impls48_$LT$impl$u20$core..cmp..Ord$u20$for$u20$i32$GT$3cmp17he407bd6594edacfeE
	sturb	w0, [x29, #-41]
	b	LBB111_7
Ltmp410:
LBB111_6:
	.loc	27 515 43 is_stmt 1
	b	LBB111_11
LBB111_7:
Ltmp411:
	.loc	27 526 56
	ldurb	w8, [x29, #-41]
	cbnz	w8, LBB111_9
	b	LBB111_8
LBB111_8:
	.loc	27 515 43
	strb	wzr, [sp, #31]
	b	LBB111_10
LBB111_9:
	.loc	27 526 56
	ldurb	w8, [x29, #-41]
	sturb	w8, [x29, #-1]
Ltmp412:
	.loc	27 526 56 is_stmt 0
	strb	w8, [sp, #31]
Ltmp413:
	.loc	27 526 56
	b	LBB111_10
Ltmp414:
LBB111_10:
	.loc	27 515 45 is_stmt 1
	b	LBB111_6
Ltmp415:
LBB111_11:
	.loc	27 515 46 is_stmt 0
	ldrb	w0, [sp, #31]
	ldp	x29, x30, [sp, #112]
	add	sp, sp, #128
	ret
LBB111_12:
Ltmp416:
	.loc	27 515 43
	b	LBB111_11
Ltmp417:
Lfunc_end111:
	.cfi_endproc

	.p2align	2
__ZN66_$LT$core..option..Option$LT$T$GT$$u20$as$u20$core..fmt..Debug$GT$3fmt17ha43a615442dac03cE:
Lfunc_begin112:
	.loc	27 515 0 is_stmt 1
	.cfi_startproc
	sub	sp, sp, #112
	stp	x29, x30, [sp, #96]
	add	x29, sp, #96
	.cfi_def_cfa w29, 16
	.cfi_offset w30, -8
	.cfi_offset w29, -16
	str	x1, [sp, #8]
	mov	x8, x0
	stur	x8, [x29, #-32]
	stur	x1, [x29, #-24]
Ltmp418:
	.loc	27 515 48 prologue_end
	str	x0, [sp, #24]
	ldr	x8, [sp, #24]
	ldr	x8, [x8]
	cbz	x8, LBB112_3
	b	LBB112_1
LBB112_1:
	b	LBB112_4
LBB112_3:
	.loc	27 0 48 is_stmt 0
	ldr	x0, [sp, #8]
	adrp	x1, l___unnamed_13@PAGE
	add	x1, x1, l___unnamed_13@PAGEOFF
	mov	w8, #4
	mov	x2, x8
	.loc	27 515 48
	bl	__ZN4core3fmt9Formatter9write_str17h158dd8e45bea3e02E
	and	w8, w0, #0x1
	strb	w8, [sp, #23]
	b	LBB112_9
LBB112_4:
	.loc	27 0 48
	ldr	x0, [sp, #8]
	.loc	27 526 56 is_stmt 1
	ldr	x8, [sp, #24]
	add	x8, x8, #8
	str	x8, [sp]
	stur	x8, [x29, #-16]
	add	x8, sp, #32
Ltmp419:
	.loc	27 0 0 is_stmt 0
	adrp	x1, l___unnamed_14@PAGE
	add	x1, x1, l___unnamed_14@PAGEOFF
	mov	w9, #4
	mov	x2, x9
	.loc	27 515 48 is_stmt 1
	bl	__ZN4core3fmt9Formatter11debug_tuple17hf80c4a7b7def1881E
	b	LBB112_5
LBB112_5:
	.loc	27 0 48 is_stmt 0
	ldr	x8, [sp]
	add	x0, sp, #32
	.loc	27 515 48
	mov	x9, x0
	stur	x9, [x29, #-8]
	sub	x1, x29, #40
Ltmp420:
	.loc	27 526 56 is_stmt 1
	stur	x8, [x29, #-40]
	.loc	27 0 0 is_stmt 0
	adrp	x2, l___unnamed_3@PAGE
	add	x2, x2, l___unnamed_3@PAGEOFF
	.loc	27 515 48 is_stmt 1
	bl	__ZN4core3fmt8builders10DebugTuple5field17h71be7dc1e649c1d2E
	b	LBB112_6
LBB112_6:
	.loc	27 0 48 is_stmt 0
	add	x0, sp, #32
	.loc	27 515 48
	bl	__ZN4core3fmt8builders10DebugTuple6finish17h755872ce88b98232E
	and	w8, w0, #0x1
	strb	w8, [sp, #23]
	b	LBB112_7
Ltmp421:
LBB112_7:
	.loc	27 515 52
	b	LBB112_8
LBB112_8:
	.loc	27 515 53
	ldrb	w8, [sp, #23]
	and	w0, w8, #0x1
	ldp	x29, x30, [sp, #96]
	add	sp, sp, #112
	ret
LBB112_9:
	.loc	27 515 52
	b	LBB112_8
Ltmp422:
Lfunc_end112:
	.cfi_endproc

	.p2align	2
__ZN68_$LT$std..process..ExitCode$u20$as$u20$std..process..Termination$GT$6report17h9de07549f81021ccE:
Lfunc_begin113:
	.loc	10 2152 0 is_stmt 1
	.cfi_startproc
	sub	sp, sp, #16
	.cfi_def_cfa_offset 16
	strb	w0, [sp, #15]
Ltmp424:
	.loc	10 2154 6 prologue_end
	add	sp, sp, #16
	ret
Ltmp425:
Lfunc_end113:
	.cfi_endproc

	.p2align	2
__ZN70_$LT$core..option..Option$LT$T$GT$$u20$as$u20$core..cmp..PartialEq$GT$2eq17hb5b0cbaa1da9cfbdE:
Lfunc_begin114:
	.loc	27 515 0
	.cfi_startproc
	sub	sp, sp, #112
	stp	x29, x30, [sp, #96]
	add	x29, sp, #96
	.cfi_def_cfa w29, 16
	.cfi_offset w30, -8
	.cfi_offset w29, -16
	str	x0, [sp, #8]
	str	x1, [sp, #16]
	mov	x8, x0
	str	x8, [sp, #48]
	mov	x8, x1
	stur	x8, [x29, #-40]
Ltmp426:
	.loc	27 515 16 prologue_end
	ldr	x8, [x0]
	stur	x8, [x29, #-32]
Ltmp427:
	.loc	27 515 16 is_stmt 0
	ldr	x9, [x1]
	stur	x9, [x29, #-24]
Ltmp428:
	.loc	27 515 16
	subs	x8, x8, x9
	b.eq	LBB114_2
	b	LBB114_1
LBB114_1:
	strb	wzr, [sp, #31]
	b	LBB114_8
LBB114_2:
	.loc	27 0 16
	ldr	x8, [sp, #16]
	ldr	x9, [sp, #8]
	.loc	27 515 16
	str	x9, [sp, #32]
	str	x8, [sp, #40]
	ldr	x8, [sp, #32]
	ldr	x8, [x8]
	subs	x8, x8, #1
	b.ne	LBB114_4
	b	LBB114_3
LBB114_3:
	ldr	x8, [sp, #40]
	ldr	x8, [x8]
	subs	x8, x8, #1
	b.eq	LBB114_5
	b	LBB114_4
LBB114_4:
	.loc	27 0 16
	mov	w8, #1
	.loc	27 515 16
	strb	w8, [sp, #31]
	b	LBB114_6
LBB114_5:
	.loc	27 526 56 is_stmt 1
	ldr	x8, [sp, #32]
	add	x0, x8, #8
	mov	x8, x0
	stur	x8, [x29, #-16]
	ldr	x8, [sp, #40]
	add	x1, x8, #8
	mov	x8, x1
	stur	x8, [x29, #-8]
Ltmp429:
	.loc	27 526 56 is_stmt 0
	bl	__ZN4core3cmp5impls56_$LT$impl$u20$core..cmp..PartialEq$u20$for$u20$usize$GT$2eq17h65542d0ee1fc9b86E
	and	w8, w0, #0x1
	strb	w8, [sp, #31]
	b	LBB114_7
Ltmp430:
LBB114_6:
	.loc	27 515 16 is_stmt 1
	b	LBB114_8
LBB114_7:
	.loc	27 515 24 is_stmt 0
	b	LBB114_6
Ltmp431:
LBB114_8:
	.loc	27 515 25
	ldrb	w8, [sp, #31]
	and	w0, w8, #0x1
	ldp	x29, x30, [sp, #96]
	add	sp, sp, #112
	ret
Ltmp432:
Lfunc_end114:
	.cfi_endproc

	.p2align	2
__ZN77_$LT$alloc..raw_vec..RawVec$LT$T$C$A$GT$$u20$as$u20$core..ops..drop..Drop$GT$4drop17h96f6daed4c590883E:
Lfunc_begin115:
	.loc	34 476 0 is_stmt 1
	.cfi_startproc
	sub	sp, sp, #80
	stp	x29, x30, [sp, #64]
	add	x29, sp, #64
	.cfi_def_cfa w29, 16
	.cfi_offset w30, -8
	.cfi_offset w29, -16
	str	x0, [sp]
	mov	x8, x0
	str	x8, [sp, #32]
	add	x8, sp, #8
Ltmp433:
	.loc	34 477 38 prologue_end
	bl	__ZN5alloc7raw_vec19RawVec$LT$T$C$A$GT$14current_memory17h8f16f14d4e28c95eE
	b	LBB115_1
LBB115_1:
	.loc	34 477 16 is_stmt 0
	ldr	x8, [sp, #8]
	subs	x8, x8, #0
	cset	x8, ne
	subs	x8, x8, #1
	b.ne	LBB115_3
	b	LBB115_2
LBB115_2:
	.loc	34 0 16
	ldr	x0, [sp]
	.loc	34 477 22
	ldr	x1, [sp, #8]
	stur	x1, [x29, #-24]
	.loc	34 477 27
	ldr	x2, [sp, #16]
	ldr	x3, [sp, #24]
	stur	x2, [x29, #-16]
	stur	x3, [x29, #-8]
	.loc	34 478 22 is_stmt 1
	bl	__ZN63_$LT$alloc..alloc..Global$u20$as$u20$core..alloc..Allocator$GT$10deallocate17hc85886bd0d30ec21E
	b	LBB115_4
LBB115_3:
	.loc	34 480 6
	ldp	x29, x30, [sp, #64]
	add	sp, sp, #80
	ret
LBB115_4:
	.loc	34 477 9
	b	LBB115_3
Ltmp434:
Lfunc_end115:
	.cfi_endproc

	.p2align	2
__ZN79_$LT$core..result..Result$LT$T$C$E$GT$$u20$as$u20$core..ops..try_trait..Try$GT$6branch17h1fa2fd2c910519f8E:
Lfunc_begin116:
	.loc	6 2089 0
	.cfi_startproc
	sub	sp, sp, #32
	.cfi_def_cfa_offset 32
	str	x0, [sp]
Ltmp436:
	.loc	6 2090 15 prologue_end
	ldr	x9, [sp]
	mov	x8, #0
	subs	x9, x9, #0
	csinc	x8, x8, xzr, ne
	.loc	6 2090 9 is_stmt 0
	cbz	x8, LBB116_3
	b	LBB116_1
LBB116_1:
	b	LBB116_4
LBB116_3:
	.loc	6 2091 16 is_stmt 1
	ldr	x8, [sp]
	str	x8, [sp, #24]
Ltmp437:
	.loc	6 2091 22 is_stmt 0
	str	x8, [sp, #8]
Ltmp438:
	.loc	6 2091 45
	b	LBB116_5
LBB116_4:
Ltmp439:
	.loc	6 2092 23 is_stmt 1
	str	xzr, [sp, #8]
	str	xzr, [sp, #8]
Ltmp440:
	.loc	6 2092 48 is_stmt 0
	b	LBB116_5
LBB116_5:
	.loc	6 2094 6 is_stmt 1
	ldr	x0, [sp, #8]
	add	sp, sp, #32
	ret
Ltmp441:
Lfunc_end116:
	.cfi_endproc

	.p2align	2
__ZN79_$LT$core..result..Result$LT$T$C$E$GT$$u20$as$u20$core..ops..try_trait..Try$GT$6branch17h4fa06f43c966c7ceE:
Lfunc_begin117:
	.loc	6 2089 0
	.cfi_startproc
	sub	sp, sp, #48
	.cfi_def_cfa_offset 48
	str	x0, [sp]
	str	x1, [sp, #8]
Ltmp443:
	.loc	6 2090 15 prologue_end
	ldr	x8, [sp]
	.loc	6 2090 9 is_stmt 0
	cbz	x8, LBB117_3
	b	LBB117_1
LBB117_1:
	b	LBB117_4
LBB117_3:
	.loc	6 2091 16 is_stmt 1
	ldr	x8, [sp, #8]
	str	x8, [sp, #40]
Ltmp444:
	.loc	6 2091 22 is_stmt 0
	str	x8, [sp, #24]
	str	xzr, [sp, #16]
Ltmp445:
	.loc	6 2091 45
	b	LBB117_5
LBB117_4:
	.loc	6 0 45
	mov	w8, #1
Ltmp446:
	.loc	6 2092 23 is_stmt 1
	str	x8, [sp, #16]
Ltmp447:
	.loc	6 2092 48 is_stmt 0
	b	LBB117_5
LBB117_5:
	.loc	6 2094 6 is_stmt 1
	ldr	x0, [sp, #16]
	ldr	x1, [sp, #24]
	add	sp, sp, #48
	ret
Ltmp448:
Lfunc_end117:
	.cfi_endproc

	.p2align	2
__ZN83_$LT$$RF$mut$u20$I$u20$as$u20$core..iter..traits..exact_size..ExactSizeIterator$GT$3len17h3ce8c51627db0f46E:
Lfunc_begin118:
	.loc	24 141 0
	.cfi_startproc
	sub	sp, sp, #32
	stp	x29, x30, [sp, #16]
	add	x29, sp, #16
	.cfi_def_cfa w29, 16
	.cfi_offset w30, -8
	.cfi_offset w29, -16
	mov	x8, x0
	str	x8, [sp, #8]
Ltmp449:
	.loc	24 142 9 prologue_end
	ldr	x0, [x0]
	bl	__ZN4core4iter6traits10exact_size17ExactSizeIterator3len17he19e985d52c0eb35E
	str	x0, [sp]
	b	LBB118_1
LBB118_1:
	.loc	24 0 9 is_stmt 0
	ldr	x0, [sp]
	.loc	24 143 6 is_stmt 1
	ldp	x29, x30, [sp, #16]
	add	sp, sp, #32
	ret
Ltmp450:
Lfunc_end118:
	.cfi_endproc

	.p2align	2
__ZN86_$LT$alloc..vec..into_iter..IntoIter$LT$T$C$A$GT$$u20$as$u20$core..ops..drop..Drop$GT$4drop17h9dc37c56584f6ed0E:
Lfunc_begin119:
	.loc	1 311 0
	.cfi_startproc
	.cfi_personality 155, _rust_eh_personality
	.cfi_lsda 16, Lexception11
	sub	sp, sp, #48
	stp	x29, x30, [sp, #32]
	add	x29, sp, #32
	.cfi_def_cfa w29, 16
	.cfi_offset w30, -8
	.cfi_offset w29, -16
	mov	x8, x0
	str	x8, [sp, #8]
Ltmp457:
	.loc	1 325 21 prologue_end
	str	x0, [sp]
Ltmp458:
	.loc	1 328 32
	ldr	x0, [sp]
Ltmp451:
	bl	__ZN5alloc3vec9into_iter21IntoIter$LT$T$C$A$GT$16as_raw_mut_slice17h0fb7677dab4cde05E
Ltmp452:
	b	LBB119_3
Ltmp459:
LBB119_1:
Ltmp454:
	.loc	1 0 32 is_stmt 0
	mov	x0, sp
	.loc	1 331 5 is_stmt 1
	bl	__ZN4core3ptr157drop_in_place$LT$$LT$alloc..vec..into_iter..IntoIter$LT$T$C$A$GT$$u20$as$u20$core..ops..drop..Drop$GT$..drop..DropGuard$LT$i32$C$alloc..alloc..Global$GT$$GT$17h8d1d2aa79eed0406E
Ltmp455:
	b	LBB119_6
LBB119_2:
Ltmp453:
	.loc	1 0 5 is_stmt 0
	mov	x8, x1
	str	x0, [sp, #16]
	str	w8, [sp, #24]
	b	LBB119_1
LBB119_3:
Ltmp460:
	.loc	1 328 13 is_stmt 1
	b	LBB119_4
Ltmp461:
LBB119_4:
	.loc	1 0 13 is_stmt 0
	mov	x0, sp
	.loc	1 331 5 is_stmt 1
	bl	__ZN4core3ptr157drop_in_place$LT$$LT$alloc..vec..into_iter..IntoIter$LT$T$C$A$GT$$u20$as$u20$core..ops..drop..Drop$GT$..drop..DropGuard$LT$i32$C$alloc..alloc..Global$GT$$GT$17h8d1d2aa79eed0406E
	b	LBB119_7
LBB119_5:
Ltmp456:
	.loc	1 311 5
	bl	__ZN4core9panicking15panic_no_unwind17h7524772236963827E
LBB119_6:
	ldr	x0, [sp, #16]
	bl	__Unwind_Resume
LBB119_7:
	.loc	1 331 6
	ldp	x29, x30, [sp, #32]
	add	sp, sp, #48
	ret
Ltmp462:
Lfunc_end119:
	.cfi_endproc
	.section	__TEXT,__gcc_except_tab
	.p2align	2
GCC_except_table119:
Lexception11:
	.byte	255
	.byte	255
	.byte	1
	.uleb128 Lcst_end11-Lcst_begin11
Lcst_begin11:
	.uleb128 Ltmp451-Lfunc_begin119
	.uleb128 Ltmp452-Ltmp451
	.uleb128 Ltmp453-Lfunc_begin119
	.byte	0
	.uleb128 Ltmp454-Lfunc_begin119
	.uleb128 Ltmp455-Ltmp454
	.uleb128 Ltmp456-Lfunc_begin119
	.byte	0
	.uleb128 Ltmp455-Lfunc_begin119
	.uleb128 Lfunc_end119-Ltmp455
	.byte	0
	.byte	0
Lcst_end11:
	.p2align	2

	.section	__TEXT,__text,regular,pure_instructions
	.p2align	2
__ZN90_$LT$alloc..vec..Vec$LT$T$C$A$GT$$u20$as$u20$core..iter..traits..collect..IntoIterator$GT$9into_iter17h2e71ef4b8ef9725aE:
Lfunc_begin120:
	.loc	30 2577 0
	.cfi_startproc
	sub	sp, sp, #352
	stp	x28, x27, [sp, #320]
	stp	x29, x30, [sp, #336]
	add	x29, sp, #336
	.cfi_def_cfa w29, 16
	.cfi_offset w30, -8
	.cfi_offset w29, -16
	.cfi_offset w27, -24
	.cfi_offset w28, -32
	str	x8, [sp, #72]
Ltmp463:
	.loc	30 2579 44 prologue_end
	ldr	q0, [x0]
	str	q0, [sp, #112]
	ldr	x8, [x0, #16]
	str	x8, [sp, #128]
Ltmp464:
	.loc	17 71 24
	ldr	q0, [sp, #112]
	stur	q0, [x29, #-144]
	ldr	x8, [sp, #128]
	stur	x8, [x29, #-128]
	.loc	17 71 9 is_stmt 0
	ldur	q0, [x29, #-144]
	str	q0, [sp, #80]
	ldur	x8, [x29, #-128]
	str	x8, [sp, #96]
Ltmp465:
	.loc	30 2579 26 is_stmt 1
	b	LBB120_1
Ltmp466:
LBB120_1:
	.loc	30 0 26 is_stmt 0
	add	x8, sp, #80
	stur	x8, [x29, #-32]
Ltmp467:
	.loc	30 2580 53 is_stmt 1
	b	LBB120_2
Ltmp468:
LBB120_2:
	.loc	30 0 53 is_stmt 0
	add	x0, sp, #80
Ltmp469:
	.loc	30 2580 53
	bl	__ZN5alloc3vec16Vec$LT$T$C$A$GT$9allocator17h35538dc3f00d0514E
	str	x0, [sp, #64]
	b	LBB120_3
Ltmp470:
LBB120_3:
	.loc	30 0 53
	ldr	x0, [sp, #64]
	.loc	30 2580 43
	bl	__ZN4core3ptr4read17h71423e98d00635bcE
	b	LBB120_4
Ltmp471:
LBB120_4:
	.loc	30 2580 25
	b	LBB120_5
Ltmp472:
LBB120_5:
	.loc	30 0 25
	add	x8, sp, #80
	stur	x8, [x29, #-24]
Ltmp473:
	.loc	30 2581 25 is_stmt 1
	b	LBB120_6
Ltmp474:
LBB120_6:
	.loc	30 0 25 is_stmt 0
	add	x0, sp, #80
	.loc	30 2581 25
	bl	__ZN5alloc3vec16Vec$LT$T$C$A$GT$10as_mut_ptr17h0620d0c0a44beb59E
	str	x0, [sp, #56]
	str	x0, [sp, #160]
	b	LBB120_7
Ltmp475:
LBB120_7:
	.loc	30 2582 26 is_stmt 1
	b	LBB120_8
Ltmp476:
LBB120_8:
	.loc	30 0 26 is_stmt 0
	mov	w8, #4
	.loc	30 2582 26
	cbnz	x8, LBB120_10
	b	LBB120_9
Ltmp477:
LBB120_9:
	.loc	30 0 26
	add	x8, sp, #80
	stur	x8, [x29, #-48]
	.loc	30 2583 50 is_stmt 1
	b	LBB120_15
Ltmp478:
LBB120_10:
	.loc	30 0 50 is_stmt 0
	add	x8, sp, #80
	stur	x8, [x29, #-40]
	.loc	30 2585 27 is_stmt 1
	b	LBB120_11
Ltmp479:
LBB120_11:
	.loc	30 0 27 is_stmt 0
	add	x0, sp, #80
	.loc	30 2585 27
	bl	__ZN5alloc3vec16Vec$LT$T$C$A$GT$3len17h15764ebfe82156bcE
	str	x0, [sp, #48]
	b	LBB120_12
Ltmp480:
LBB120_12:
	.loc	30 0 27
	ldr	x8, [sp, #56]
	ldr	x9, [sp, #48]
	stur	x8, [x29, #-112]
	stur	x9, [x29, #-104]
	stur	x8, [x29, #-96]
	stur	x9, [x29, #-88]
Ltmp481:
	.loc	16 424 18 is_stmt 1
	add	x8, x8, x9, lsl #2
	stur	x8, [x29, #-80]
	ldur	x8, [x29, #-80]
	str	x8, [sp, #40]
Ltmp482:
	.loc	30 2585 17
	b	LBB120_13
Ltmp483:
LBB120_13:
	.loc	30 0 17 is_stmt 0
	ldr	x8, [sp, #40]
	.loc	30 2585 17
	str	x8, [sp, #144]
	.loc	30 2582 23 is_stmt 1
	b	LBB120_14
Ltmp484:
LBB120_14:
	.loc	30 0 23 is_stmt 0
	add	x8, sp, #80
	stur	x8, [x29, #-56]
Ltmp485:
	.loc	30 2587 23 is_stmt 1
	b	LBB120_18
Ltmp486:
LBB120_15:
	.loc	30 0 23 is_stmt 0
	add	x0, sp, #80
	.loc	30 2583 50 is_stmt 1
	bl	__ZN5alloc3vec16Vec$LT$T$C$A$GT$3len17h15764ebfe82156bcE
	str	x0, [sp, #32]
	b	LBB120_16
Ltmp487:
LBB120_16:
	.loc	30 0 50 is_stmt 0
	ldr	x8, [sp, #56]
	ldr	x9, [sp, #32]
	.loc	30 2583 17
	add	x8, x8, x9
	str	x8, [sp, #168]
	ldr	x8, [sp, #168]
	str	x8, [sp, #24]
	b	LBB120_17
Ltmp488:
LBB120_17:
	.loc	30 0 17
	ldr	x8, [sp, #24]
	.loc	30 2583 17
	str	x8, [sp, #144]
	.loc	30 2582 23 is_stmt 1
	b	LBB120_14
Ltmp489:
LBB120_18:
	.loc	30 0 23 is_stmt 0
	add	x8, sp, #80
	stur	x8, [x29, #-64]
Ltmp490:
	.loc	34 232 59 is_stmt 1
	ldr	x8, [sp, #88]
	stur	x8, [x29, #-72]
	.loc	34 233 6
	ldur	x8, [x29, #-72]
	str	x8, [sp, #16]
Ltmp491:
	.loc	30 2587 23
	stur	x8, [x29, #-160]
	b	LBB120_19
Ltmp492:
LBB120_19:
	.loc	30 0 23 is_stmt 0
	ldr	x0, [sp, #56]
Ltmp493:
	.loc	30 2589 22 is_stmt 1
	bl	__ZN4core3ptr8non_null16NonNull$LT$T$GT$13new_unchecked17he2584b8d3abe8d36E
	str	x0, [sp, #8]
	b	LBB120_20
Ltmp494:
LBB120_20:
	.loc	30 0 22 is_stmt 0
	ldr	x9, [sp, #72]
	ldr	x10, [sp, #56]
	ldr	x11, [sp, #16]
	ldr	x12, [sp, #8]
	.loc	30 2594 17 is_stmt 1
	ldr	x8, [sp, #144]
	.loc	30 2588 13
	str	x12, [x9]
	str	x11, [x9, #8]
	str	x10, [x9, #16]
	str	x8, [x9, #24]
Ltmp495:
	.loc	30 2597 6
	ldp	x29, x30, [sp, #336]
	ldp	x28, x27, [sp, #320]
	add	sp, sp, #352
	ret
Ltmp496:
Lfunc_end120:
	.cfi_endproc

	.p2align	2
__ZN95_$LT$core..ptr..unique..Unique$LT$T$GT$$u20$as$u20$core..convert..From$LT$$RF$mut$u20$T$GT$$GT$4from17h38ab7d2c3387c05dE:
Lfunc_begin121:
	.loc	21 186 0
	.cfi_startproc
	sub	sp, sp, #32
	.cfi_def_cfa_offset 32
	mov	x8, x0
	str	x8, [sp, #16]
	str	x1, [sp, #24]
Ltmp498:
	.loc	21 188 18 prologue_end
	str	x0, [sp]
	str	x1, [sp, #8]
	.loc	21 189 6
	ldr	x0, [sp]
	ldr	x1, [sp, #8]
	add	sp, sp, #32
	ret
Ltmp499:
Lfunc_end121:
	.cfi_endproc

	.p2align	2
__ZN14buy_sell_stock8Solution10max_profit17h483d822e651580d3E:
Lfunc_begin122:
	.file	35 "/Users/jonah/code/rust/leetcode/buy-sell-stock/src/main.rs"
	.loc	35 4 0
	.cfi_startproc
	.cfi_personality 155, _rust_eh_personality
	.cfi_lsda 16, Lexception12
	sub	sp, sp, #240
	stp	x29, x30, [sp, #224]
	add	x29, sp, #224
	.cfi_def_cfa w29, 16
	.cfi_offset w30, -8
	.cfi_offset w29, -16
	sub	x8, x29, #32
	str	x8, [sp, #40]
	mov	x8, x0
Ltmp512:
	.loc	35 5 41 prologue_end
	str	wzr, [sp, #56]
Ltmp513:
	.loc	35 6 35
	str	wzr, [sp, #52]
Ltmp514:
	.loc	35 7 22
	ldr	q0, [x8]
	add	x0, sp, #96
	str	q0, [sp, #96]
	ldr	x8, [x8, #16]
Ltmp515:
	str	x8, [sp, #112]
	add	x8, sp, #64
	bl	__ZN90_$LT$alloc..vec..Vec$LT$T$C$A$GT$$u20$as$u20$core..iter..traits..collect..IntoIterator$GT$9into_iter17h2e71ef4b8ef9725aE
	b	LBB122_1
LBB122_1:
	ldr	q0, [sp, #64]
	stur	q0, [x29, #-96]
	ldr	q0, [sp, #80]
	stur	q0, [x29, #-80]
Ltmp516:
	.loc	35 7 9 is_stmt 0
	b	LBB122_2
LBB122_2:
Ltmp500:
	.loc	35 0 9
	sub	x0, x29, #96
	.loc	35 7 22
	bl	__ZN103_$LT$alloc..vec..into_iter..IntoIter$LT$T$C$A$GT$$u20$as$u20$core..iter..traits..iterator..Iterator$GT$4next17hca21c3acb9bf23f6E
	str	w0, [sp, #32]
	str	w1, [sp, #36]
Ltmp501:
	b	LBB122_5
Ltmp517:
LBB122_3:
Ltmp509:
	.loc	35 0 22
	sub	x0, x29, #96
	.loc	35 7 9
	bl	__ZN4core3ptr63drop_in_place$LT$alloc..vec..into_iter..IntoIter$LT$i32$GT$$GT$17h0063b9581b356265E
Ltmp510:
	b	LBB122_18
LBB122_4:
Ltmp508:
	.loc	35 0 9
	ldr	x9, [sp, #40]
	mov	x8, x1
	str	x0, [x9]
	stur	w8, [x29, #-24]
	b	LBB122_3
LBB122_5:
	ldr	w8, [sp, #36]
	ldr	w9, [sp, #32]
Ltmp518:
	.loc	35 7 22
	stur	w9, [x29, #-56]
	stur	w8, [x29, #-52]
	ldur	w8, [x29, #-56]
	cbz	x8, LBB122_8
	b	LBB122_6
LBB122_6:
	b	LBB122_9
Ltmp519:
LBB122_8:
	.loc	35 0 22
	sub	x0, x29, #96
	.loc	35 7 9
	bl	__ZN4core3ptr63drop_in_place$LT$alloc..vec..into_iter..IntoIter$LT$i32$GT$$GT$17h0063b9581b356265E
	b	LBB122_19
LBB122_9:
Ltmp520:
	.loc	35 7 13
	ldur	w8, [x29, #-52]
	str	w8, [sp, #28]
	stur	w8, [x29, #-12]
Ltmp521:
	.loc	35 8 20 is_stmt 1
	ldr	w8, [sp, #56]
	subs	x8, x8, #1
	b.ne	LBB122_11
	b	LBB122_10
LBB122_10:
	.loc	35 0 20 is_stmt 0
	ldr	w8, [sp, #28]
	.loc	35 8 25
	ldr	w9, [sp, #60]
	stur	w9, [x29, #-8]
	.loc	35 9 28 is_stmt 1
	subs	w8, w8, w9
	str	w8, [sp, #24]
	cset	w8, vs
	tbnz	w8, #0, LBB122_13
	b	LBB122_12
LBB122_11:
	.loc	35 0 28 is_stmt 0
	ldr	w8, [sp, #28]
	.loc	35 13 28 is_stmt 1
	stur	w8, [x29, #-36]
	mov	w8, #1
	stur	w8, [x29, #-40]
	.loc	35 13 17 is_stmt 0
	ldur	w9, [x29, #-40]
	ldur	w8, [x29, #-36]
	str	w9, [sp, #56]
	str	w8, [sp, #60]
	.loc	35 8 13 is_stmt 1
	b	LBB122_2
LBB122_12:
	.loc	35 0 13 is_stmt 0
	ldr	w1, [sp, #24]
	.loc	35 9 28 is_stmt 1
	stur	w1, [x29, #-4]
Ltmp522:
	.loc	35 10 30
	ldr	w0, [sp, #52]
Ltmp502:
	bl	__ZN4core3cmp3Ord3max17h10d58de8e91d4516E
	str	w0, [sp, #20]
Ltmp503:
	b	LBB122_15
Ltmp523:
LBB122_13:
Ltmp506:
	.loc	35 0 0 is_stmt 0
	adrp	x0, _str.0@PAGE
	add	x0, x0, _str.0@PAGEOFF
	mov	w8, #33
	mov	x1, x8
	adrp	x2, l___unnamed_15@PAGE
	add	x2, x2, l___unnamed_15@PAGEOFF
	.loc	35 9 28 is_stmt 1
	bl	__ZN4core9panicking5panic17ha94a579c0309d35aE
Ltmp507:
	b	LBB122_14
LBB122_14:
	.loc	35 0 28 is_stmt 0
	brk	#0x1
LBB122_15:
	ldr	w8, [sp, #28]
	ldr	w9, [sp, #20]
Ltmp524:
	.loc	35 10 17 is_stmt 1
	str	w9, [sp, #52]
	.loc	35 11 28
	ldr	w0, [sp, #56]
	ldr	w1, [sp, #60]
	.loc	35 11 41 is_stmt 0
	stur	w8, [x29, #-44]
	mov	w8, #1
	stur	w8, [x29, #-48]
	.loc	35 11 28
	ldur	w2, [x29, #-48]
	ldur	w3, [x29, #-44]
Ltmp504:
	bl	__ZN4core3cmp3Ord3min17h7efa1e4b17d79856E
	str	w0, [sp, #12]
	str	w1, [sp, #16]
Ltmp505:
	b	LBB122_16
LBB122_16:
	.loc	35 0 28
	ldr	w8, [sp, #16]
	ldr	w9, [sp, #12]
	.loc	35 11 17
	str	w9, [sp, #56]
	str	w8, [sp, #60]
Ltmp525:
	.loc	35 8 13 is_stmt 1
	b	LBB122_2
Ltmp526:
LBB122_17:
Ltmp511:
	.loc	35 4 5
	bl	__ZN4core9panicking15panic_no_unwind17h7524772236963827E
LBB122_18:
	.loc	35 0 5 is_stmt 0
	ldr	x8, [sp, #40]
	.loc	35 4 5
	ldr	x0, [x8]
	bl	__Unwind_Resume
LBB122_19:
	.loc	35 17 6 is_stmt 1
	ldr	w0, [sp, #52]
	ldp	x29, x30, [sp, #224]
	add	sp, sp, #240
	ret
Ltmp527:
Lfunc_end122:
	.cfi_endproc
	.section	__TEXT,__gcc_except_tab
	.p2align	2
GCC_except_table122:
Lexception12:
	.byte	255
	.byte	255
	.byte	1
	.uleb128 Lcst_end12-Lcst_begin12
Lcst_begin12:
	.uleb128 Lfunc_begin122-Lfunc_begin122
	.uleb128 Ltmp500-Lfunc_begin122
	.byte	0
	.byte	0
	.uleb128 Ltmp500-Lfunc_begin122
	.uleb128 Ltmp501-Ltmp500
	.uleb128 Ltmp508-Lfunc_begin122
	.byte	0
	.uleb128 Ltmp509-Lfunc_begin122
	.uleb128 Ltmp510-Ltmp509
	.uleb128 Ltmp511-Lfunc_begin122
	.byte	0
	.uleb128 Ltmp510-Lfunc_begin122
	.uleb128 Ltmp502-Ltmp510
	.byte	0
	.byte	0
	.uleb128 Ltmp502-Lfunc_begin122
	.uleb128 Ltmp505-Ltmp502
	.uleb128 Ltmp508-Lfunc_begin122
	.byte	0
	.uleb128 Ltmp505-Lfunc_begin122
	.uleb128 Lfunc_end122-Ltmp505
	.byte	0
	.byte	0
Lcst_end12:
	.p2align	2

	.section	__TEXT,__text,regular,pure_instructions
	.p2align	2
__ZN14buy_sell_stock4main17h8457e37fa3dc0bb7E:
Lfunc_begin123:
	.loc	35 20 0
	.cfi_startproc
	sub	sp, sp, #144
	stp	x29, x30, [sp, #128]
	add	x29, sp, #128
	.cfi_def_cfa w29, 16
	.cfi_offset w30, -8
	.cfi_offset w29, -16
	mov	w8, #20
	mov	x0, x8
	mov	w8, #4
	mov	x1, x8
Ltmp528:
	.loc	35 21 34 prologue_end
	bl	__ZN5alloc5alloc15exchange_malloc17h76714da59e4f6751E
	str	x0, [sp, #24]
	b	LBB123_1
LBB123_1:
	.loc	35 0 34 is_stmt 0
	ldr	x0, [sp, #24]
	mov	w8, #7
	.loc	35 21 34
	str	w8, [x0]
	mov	w8, #6
	str	w8, [x0, #4]
	mov	w8, #4
	str	w8, [x0, #8]
	mov	w8, #3
	str	w8, [x0, #12]
	mov	w8, #1
	str	w8, [x0, #16]
	add	x8, sp, #40
	mov	w9, #5
	mov	x1, x9
	bl	__ZN5alloc5slice29_$LT$impl$u20$$u5b$T$u5d$$GT$8into_vec17hf18cc18c890051b7E
	b	LBB123_2
LBB123_2:
	.loc	35 0 34
	add	x0, sp, #40
	.loc	35 21 13
	bl	__ZN14buy_sell_stock8Solution10max_profit17h483d822e651580d3E
	str	w0, [sp, #36]
	b	LBB123_3
LBB123_3:
	.loc	35 0 13
	add	x0, sp, #36
Ltmp529:
	.loc	35 22 5 is_stmt 1
	bl	__ZN4core3fmt10ArgumentV19new_debug17h068a0f6e68f85961E
	str	x0, [sp, #8]
	str	x1, [sp, #16]
	b	LBB123_4
LBB123_4:
	.loc	35 0 5 is_stmt 0
	ldr	x8, [sp, #16]
	ldr	x9, [sp, #8]
	sub	x2, x29, #16
	.loc	35 22 5
	stur	x9, [x29, #-16]
	stur	x8, [x29, #-8]
	add	x8, sp, #64
	.loc	35 0 0
	adrp	x0, l___unnamed_16@PAGE
	add	x0, x0, l___unnamed_16@PAGEOFF
	mov	w9, #2
	mov	x1, x9
	mov	w9, #1
	mov	x3, x9
	.loc	35 22 5
	bl	__ZN4core3fmt9Arguments6new_v117h26d53a7aec6ead62E
	b	LBB123_5
LBB123_5:
	.loc	35 0 5
	add	x0, sp, #64
	.loc	35 22 5
	bl	__ZN3std2io5stdio6_print17hdecfefdeb43586edE
	b	LBB123_6
Ltmp530:
LBB123_6:
	.loc	35 23 2 is_stmt 1
	ldp	x29, x30, [sp, #128]
	add	sp, sp, #144
	ret
Ltmp531:
Lfunc_end123:
	.cfi_endproc

	.globl	_main
	.p2align	2
_main:
Lfunc_begin124:
	.cfi_startproc
	stp	x29, x30, [sp, #-16]!
	mov	x29, sp
	.cfi_def_cfa w29, 16
	.cfi_offset w30, -8
	.cfi_offset w29, -16
	mov	x2, x1
	mov	x8, x0
	sxtw	x1, w8
	adrp	x0, __ZN14buy_sell_stock4main17h8457e37fa3dc0bb7E@PAGE
	add	x0, x0, __ZN14buy_sell_stock4main17h8457e37fa3dc0bb7E@PAGEOFF
	bl	__ZN3std2rt10lang_start17h8252c41076ae8659E
	ldp	x29, x30, [sp], #16
	ret
Lfunc_end124:
	.cfi_endproc

	.section	__TEXT,__const
l___unnamed_17:
	.ascii	"/rustc/fe5b13d681f25ee6474be29d748c65adcd91f69e/library/alloc/src/vec/into_iter.rs"

	.section	__DATA,__const
	.p2align	3
l___unnamed_18:
	.quad	l___unnamed_17
	.asciz	"R\000\000\000\000\000\000\000\231\000\000\000\033\000\000"

	.p2align	3
l___unnamed_1:
	.quad	__ZN4core3ptr85drop_in_place$LT$std..rt..lang_start$LT$$LP$$RP$$GT$..$u7b$$u7b$closure$u7d$$u7d$$GT$17h18a753724c29f32bE
	.asciz	"\b\000\000\000\000\000\000\000\b\000\000\000\000\000\000"
	.quad	__ZN4core3ops8function6FnOnce40call_once$u7b$$u7b$vtable.shim$u7d$$u7d$17hc2192c66f2523485E
	.quad	__ZN3std2rt10lang_start28_$u7b$$u7b$closure$u7d$$u7d$17hf8d61c53a03450ebE
	.quad	__ZN3std2rt10lang_start28_$u7b$$u7b$closure$u7d$$u7d$17hf8d61c53a03450ebE

	.section	__TEXT,__const
l___unnamed_19:
	.ascii	"invalid args"

	.section	__DATA,__const
	.p2align	3
l___unnamed_4:
	.quad	l___unnamed_19
	.asciz	"\f\000\000\000\000\000\000"

	.section	__TEXT,__const
	.p2align	3
l___unnamed_5:
	.byte	0

l___unnamed_20:
	.ascii	"/rustc/fe5b13d681f25ee6474be29d748c65adcd91f69e/library/core/src/fmt/mod.rs"

	.section	__DATA,__const
	.p2align	3
l___unnamed_6:
	.quad	l___unnamed_20
	.asciz	"K\000\000\000\000\000\000\000\205\001\000\000\r\000\000"

	.section	__TEXT,__const
l___unnamed_21:
	.ascii	"/rustc/fe5b13d681f25ee6474be29d748c65adcd91f69e/library/core/src/ptr/mod.rs"

	.section	__DATA,__const
	.p2align	3
l___unnamed_22:
	.quad	l___unnamed_21
	.asciz	"K\000\000\000\000\000\000\000\333\003\000\000\r\000\000"

	.section	__TEXT,__const
l___unnamed_7:
	.ascii	"assertion failed: 0 < pointee_size && pointee_size <= isize::MAX as usize"

l___unnamed_23:
	.ascii	"/rustc/fe5b13d681f25ee6474be29d748c65adcd91f69e/library/core/src/ptr/const_ptr.rs"

	.section	__DATA,__const
	.p2align	3
l___unnamed_8:
	.quad	l___unnamed_23
	.asciz	"Q\000\000\000\000\000\000\0006\002\000\000\t\000\000"

	.section	__TEXT,__const
l___unnamed_24:
	.ascii	"/rustc/fe5b13d681f25ee6474be29d748c65adcd91f69e/library/core/src/iter/traits/exact_size.rs"

	.section	__DATA,__const
	.p2align	3
l___unnamed_9:
	.quad	l___unnamed_24
	.asciz	"Z\000\000\000\000\000\000\000l\000\000\000\t\000\000"

	.section	__TEXT,__const
l___unnamed_25:
	.ascii	"/rustc/fe5b13d681f25ee6474be29d748c65adcd91f69e/library/core/src/alloc/layout.rs"

	.section	__DATA,__const
	.p2align	3
l___unnamed_10:
	.quad	l___unnamed_25
	.asciz	"P\000\000\000\000\000\000\000\230\001\000\000\032\000\000"

	.p2align	3
l___unnamed_2:
	.quad	__ZN4core3ptr58drop_in_place$LT$$RF$core..option..Option$LT$usize$GT$$GT$17h6d815e00e9f9c26bE
	.asciz	"\b\000\000\000\000\000\000\000\b\000\000\000\000\000\000"
	.quad	__ZN42_$LT$$RF$T$u20$as$u20$core..fmt..Debug$GT$3fmt17h8796ba4b7e5c0672E

	.section	__TEXT,__const
l___unnamed_26:
	.ascii	"/rustc/fe5b13d681f25ee6474be29d748c65adcd91f69e/library/alloc/src/alloc.rs"

	.section	__DATA,__const
	.p2align	3
l___unnamed_11:
	.quad	l___unnamed_26
	.asciz	"J\000\000\000\000\000\000\000\254\000\000\000\033\000\000"

	.section	__TEXT,__const
l___unnamed_27:
	.ascii	"/rustc/fe5b13d681f25ee6474be29d748c65adcd91f69e/library/alloc/src/raw_vec.rs"

	.section	__DATA,__const
	.p2align	3
l___unnamed_12:
	.quad	l___unnamed_27
	.asciz	"L\000\000\000\000\000\000\000\367\000\000\000;\000\000"

	.section	__TEXT,__literal4,4byte_literals
l___unnamed_14:
	.ascii	"Some"

	.section	__DATA,__const
	.p2align	3
l___unnamed_3:
	.quad	__ZN4core3ptr30drop_in_place$LT$$RF$usize$GT$17h4f0c1c76d0e94d8eE
	.asciz	"\b\000\000\000\000\000\000\000\b\000\000\000\000\000\000"
	.quad	__ZN42_$LT$$RF$T$u20$as$u20$core..fmt..Debug$GT$3fmt17he3f483ec5e52f8e0E

	.section	__TEXT,__literal4,4byte_literals
l___unnamed_13:
	.ascii	"None"

	.section	__TEXT,__const
l___unnamed_28:
	.ascii	"src/main.rs"

	.section	__DATA,__const
	.p2align	3
l___unnamed_15:
	.quad	l___unnamed_28
	.asciz	"\013\000\000\000\000\000\000\000\t\000\000\000\034\000\000"

	.section	__TEXT,__const
	.p2align	4
_str.0:
	.ascii	"attempt to subtract with overflow"

l___unnamed_29:
	.byte	10

	.section	__DATA,__const
	.p2align	3
l___unnamed_16:
	.quad	l___unnamed_5
	.space	8
	.quad	l___unnamed_29
	.asciz	"\001\000\000\000\000\000\000"

	.section	__DATA,__const
Lsec_end0:
	.section	__TEXT,__text,regular,pure_instructions
Lsec_end1: